

Microchip MPLAB XC8 Assembler V2.40 build 20220703182018 
                                                                                               Sun Oct 30 22:13:47 2022

Microchip MPLAB XC8 C Compiler v2.40 (Free license) build 20220703182018 Og1 
     1                           	processor	16F18877
     2                           	pagewidth 120
     3                           	opt	flic
     4                           	psect	idataBANK0,global,class=CODE,delta=2,noexec
     5                           	psect	stringtext1,global,class=STRCODE,delta=2,noexec
     6                           	psect	stringtext2,global,class=STRCODE,delta=2,noexec
     7                           	psect	stringtext3,global,class=STRCODE,delta=2,noexec
     8                           	psect	cinit,global,class=CODE,merge=1,delta=2
     9                           	psect	bssCOMMON,global,class=COMMON,space=1,delta=1,noexec
    10                           	psect	bssBANK0,global,class=BANK0,space=1,delta=1,noexec
    11                           	psect	dataBANK0,global,class=BANK0,space=1,delta=1,noexec
    12                           	psect	inittext,global,class=CODE,delta=2
    13                           	psect	cstackCOMMON,global,class=COMMON,space=1,delta=1,noexec
    14                           	psect	cstackBANK0,global,class=BANK0,space=1,delta=1,noexec
    15                           	psect	maintext,global,class=CODE,merge=1,split=1,delta=2
    16                           	psect	text1,local,class=CODE,merge=1,delta=2
    17                           	psect	text2,local,class=CODE,merge=1,delta=2,group=1
    18                           	psect	text3,local,class=CODE,merge=1,delta=2
    19                           	psect	text4,local,class=CODE,merge=1,delta=2
    20                           	psect	text5,local,class=CODE,merge=1,delta=2
    21                           	psect	text6,local,class=CODE,merge=1,delta=2
    22                           	psect	text7,local,class=CODE,merge=1,delta=2
    23                           	psect	text8,local,class=CODE,merge=1,delta=2
    24                           	psect	text9,local,class=CODE,merge=1,delta=2
    25                           	psect	text10,local,class=CODE,merge=1,delta=2
    26                           	psect	text11,local,class=CODE,merge=1,delta=2
    27                           	psect	text12,local,class=CODE,merge=1,delta=2
    28                           	psect	idloc,global,abs,ovrld,class=IDLOC,space=5,delta=2,noexec
    29                           	psect	config,global,abs,ovrld,class=CONFIG,space=4,delta=2,noexec
    30                           	dabs	1,0x7E,2
    31     0000                     
    32                           ; Version 2.40
    33                           ; Generated 04/07/2022 GMT
    34                           ; 
    35                           ; Copyright © 2022, Microchip Technology Inc. and its subsidiaries ("Microchip")
    36                           ; All rights reserved.
    37                           ; 
    38                           ; This software is developed by Microchip Technology Inc. and its subsidiaries ("Microch
      +                          ip").
    39                           ; 
    40                           ; Redistribution and use in source and binary forms, with or without modification, are
    41                           ; permitted provided that the following conditions are met:
    42                           ; 
    43                           ;     1. Redistributions of source code must retain the above copyright notice, this lis
      +                          t of
    44                           ;        conditions and the following disclaimer.
    45                           ; 
    46                           ;     2. Redistributions in binary form must reproduce the above copyright notice, this 
      +                          list
    47                           ;        of conditions and the following disclaimer in the documentation and/or other
    48                           ;        materials provided with the distribution. Publication is not required when
    49                           ;        this file is used in an embedded application.
    50                           ; 
    51                           ;     3. Microchip's name may not be used to endorse or promote products derived from th
      +                          is
    52                           ;        software without specific prior written permission.
    53                           ; 
    54                           ; THIS SOFTWARE IS PROVIDED BY MICROCHIP "AS IS" AND ANY EXPRESS OR IMPLIED WARRANTIES,
    55                           ; INCLUDING, BUT NOT LIMITED TO, THE IMPLIED WARRANTIES OF MERCHANTABILITY AND FITNESS F
      +                          OR
    56                           ; PURPOSE ARE DISCLAIMED.  IN NO EVENT SHALL MICROCHIP BE LIABLE FOR ANY DIRECT, INDIREC
      +                          T,
    57                           ; INCIDENTAL, SPECIAL, EXEMPLARY, OR CONSEQUENTIAL DAMAGES (INCLUDING BUT NOT LIMITED TO
    58                           ; PROCUREMENT OF SUBSTITUTE GOODS OR SERVICES; LOSS OF USE, DATA OR PROFITS; OR BUSINESS
    59                           ; INTERRUPTION) HOWSOEVER CAUSED AND ON ANY THEORY OF LIABILITY, WHETHER IN CONTRACT, ST
      +                          RICT
    60                           ; LIABILITY, OR TORT (INCLUDING NEGLIGENCE OR OTHERWISE) ARISING IN ANY WAY OUT OF THE U
      +                          SE OF
    61                           ; THIS SOFTWARE, EVEN IF ADVISED OF THE POSSIBILITY OF SUCH DAMAGE.
    62                           ; 
    63                           ; 
    64                           ; Code-generator required, PIC16F18877 Definitions
    65                           ; 
    66                           ; SFR Addresses
    67     0000                     	;# 
    68     0001                     	;# 
    69     0002                     	;# 
    70     0003                     	;# 
    71     0004                     	;# 
    72     0005                     	;# 
    73     0006                     	;# 
    74     0007                     	;# 
    75     0008                     	;# 
    76     0009                     	;# 
    77     000A                     	;# 
    78     000B                     	;# 
    79     000C                     	;# 
    80     000D                     	;# 
    81     000E                     	;# 
    82     000F                     	;# 
    83     0010                     	;# 
    84     0011                     	;# 
    85     0012                     	;# 
    86     0013                     	;# 
    87     0014                     	;# 
    88     0015                     	;# 
    89     0016                     	;# 
    90     0017                     	;# 
    91     0018                     	;# 
    92     0019                     	;# 
    93     001A                     	;# 
    94     001C                     	;# 
    95     001C                     	;# 
    96     001D                     	;# 
    97     001D                     	;# 
    98     001E                     	;# 
    99     001F                     	;# 
   100     008C                     	;# 
   101     008C                     	;# 
   102     008D                     	;# 
   103     008E                     	;# 
   104     008E                     	;# 
   105     008F                     	;# 
   106     0090                     	;# 
   107     0090                     	;# 
   108     0091                     	;# 
   109     0093                     	;# 
   110     0094                     	;# 
   111     0095                     	;# 
   112     0096                     	;# 
   113     0097                     	;# 
   114     0098                     	;# 
   115     0099                     	;# 
   116     009A                     	;# 
   117     009B                     	;# 
   118     009C                     	;# 
   119     009D                     	;# 
   120     009E                     	;# 
   121     010C                     	;# 
   122     010D                     	;# 
   123     010E                     	;# 
   124     010E                     	;# 
   125     010F                     	;# 
   126     0110                     	;# 
   127     0110                     	;# 
   128     0111                     	;# 
   129     0112                     	;# 
   130     0112                     	;# 
   131     0113                     	;# 
   132     0114                     	;# 
   133     0114                     	;# 
   134     0115                     	;# 
   135     0116                     	;# 
   136     0116                     	;# 
   137     0117                     	;# 
   138     0119                     	;# 
   139     0119                     	;# 
   140     0119                     	;# 
   141     011A                     	;# 
   142     011A                     	;# 
   143     011A                     	;# 
   144     011B                     	;# 
   145     011B                     	;# 
   146     011B                     	;# 
   147     011B                     	;# 
   148     011B                     	;# 
   149     011C                     	;# 
   150     011C                     	;# 
   151     011C                     	;# 
   152     011D                     	;# 
   153     011D                     	;# 
   154     011D                     	;# 
   155     011E                     	;# 
   156     011E                     	;# 
   157     011E                     	;# 
   158     011F                     	;# 
   159     011F                     	;# 
   160     011F                     	;# 
   161     011F                     	;# 
   162     011F                     	;# 
   163     018C                     	;# 
   164     018D                     	;# 
   165     018E                     	;# 
   166     018F                     	;# 
   167     0190                     	;# 
   168     0191                     	;# 
   169     0192                     	;# 
   170     0196                     	;# 
   171     0197                     	;# 
   172     0198                     	;# 
   173     0199                     	;# 
   174     019A                     	;# 
   175     019B                     	;# 
   176     019C                     	;# 
   177     020C                     	;# 
   178     020C                     	;# 
   179     020D                     	;# 
   180     020E                     	;# 
   181     020F                     	;# 
   182     020F                     	;# 
   183     0210                     	;# 
   184     0210                     	;# 
   185     0211                     	;# 
   186     0211                     	;# 
   187     0212                     	;# 
   188     0212                     	;# 
   189     0213                     	;# 
   190     0214                     	;# 
   191     0215                     	;# 
   192     0215                     	;# 
   193     0216                     	;# 
   194     0216                     	;# 
   195     0217                     	;# 
   196     0217                     	;# 
   197     0218                     	;# 
   198     0218                     	;# 
   199     0219                     	;# 
   200     021A                     	;# 
   201     021B                     	;# 
   202     021B                     	;# 
   203     021C                     	;# 
   204     021C                     	;# 
   205     021D                     	;# 
   206     021D                     	;# 
   207     021E                     	;# 
   208     021F                     	;# 
   209     028C                     	;# 
   210     028C                     	;# 
   211     028D                     	;# 
   212     028D                     	;# 
   213     028E                     	;# 
   214     028F                     	;# 
   215     0290                     	;# 
   216     0290                     	;# 
   217     0291                     	;# 
   218     0292                     	;# 
   219     0292                     	;# 
   220     0293                     	;# 
   221     0293                     	;# 
   222     0294                     	;# 
   223     0295                     	;# 
   224     0296                     	;# 
   225     0296                     	;# 
   226     0297                     	;# 
   227     0298                     	;# 
   228     0298                     	;# 
   229     0299                     	;# 
   230     0299                     	;# 
   231     029A                     	;# 
   232     029B                     	;# 
   233     029C                     	;# 
   234     029C                     	;# 
   235     029D                     	;# 
   236     030C                     	;# 
   237     030C                     	;# 
   238     030D                     	;# 
   239     030E                     	;# 
   240     030F                     	;# 
   241     0310                     	;# 
   242     0310                     	;# 
   243     0311                     	;# 
   244     0312                     	;# 
   245     0313                     	;# 
   246     0314                     	;# 
   247     0314                     	;# 
   248     0315                     	;# 
   249     0316                     	;# 
   250     0317                     	;# 
   251     0318                     	;# 
   252     0318                     	;# 
   253     0319                     	;# 
   254     031A                     	;# 
   255     031B                     	;# 
   256     031C                     	;# 
   257     031C                     	;# 
   258     031D                     	;# 
   259     031E                     	;# 
   260     031F                     	;# 
   261     038C                     	;# 
   262     038C                     	;# 
   263     038D                     	;# 
   264     038E                     	;# 
   265     0390                     	;# 
   266     0390                     	;# 
   267     0391                     	;# 
   268     0392                     	;# 
   269     040C                     	;# 
   270     040D                     	;# 
   271     040E                     	;# 
   272     040F                     	;# 
   273     0410                     	;# 
   274     0411                     	;# 
   275     0416                     	;# 
   276     0416                     	;# 
   277     0417                     	;# 
   278     0418                     	;# 
   279     0418                     	;# 
   280     0419                     	;# 
   281     041A                     	;# 
   282     041A                     	;# 
   283     041B                     	;# 
   284     041C                     	;# 
   285     041C                     	;# 
   286     041D                     	;# 
   287     041E                     	;# 
   288     041F                     	;# 
   289     048C                     	;# 
   290     048C                     	;# 
   291     048D                     	;# 
   292     048E                     	;# 
   293     048F                     	;# 
   294     048F                     	;# 
   295     0490                     	;# 
   296     0491                     	;# 
   297     0492                     	;# 
   298     0492                     	;# 
   299     0493                     	;# 
   300     0494                     	;# 
   301     0495                     	;# 
   302     0495                     	;# 
   303     0496                     	;# 
   304     0497                     	;# 
   305     0498                     	;# 
   306     0499                     	;# 
   307     049A                     	;# 
   308     049B                     	;# 
   309     049C                     	;# 
   310     049D                     	;# 
   311     050C                     	;# 
   312     050C                     	;# 
   313     050D                     	;# 
   314     050E                     	;# 
   315     050F                     	;# 
   316     050F                     	;# 
   317     0510                     	;# 
   318     0511                     	;# 
   319     0512                     	;# 
   320     0512                     	;# 
   321     0513                     	;# 
   322     0514                     	;# 
   323     0515                     	;# 
   324     0515                     	;# 
   325     0516                     	;# 
   326     0517                     	;# 
   327     0518                     	;# 
   328     0519                     	;# 
   329     051A                     	;# 
   330     051B                     	;# 
   331     051C                     	;# 
   332     051D                     	;# 
   333     058C                     	;# 
   334     058C                     	;# 
   335     058D                     	;# 
   336     058E                     	;# 
   337     058F                     	;# 
   338     058F                     	;# 
   339     0590                     	;# 
   340     0591                     	;# 
   341     0592                     	;# 
   342     0593                     	;# 
   343     060C                     	;# 
   344     060D                     	;# 
   345     060E                     	;# 
   346     060F                     	;# 
   347     0610                     	;# 
   348     0611                     	;# 
   349     0612                     	;# 
   350     0613                     	;# 
   351     0614                     	;# 
   352     0616                     	;# 
   353     0617                     	;# 
   354     0618                     	;# 
   355     0619                     	;# 
   356     061A                     	;# 
   357     061B                     	;# 
   358     061C                     	;# 
   359     061D                     	;# 
   360     061E                     	;# 
   361     068C                     	;# 
   362     068D                     	;# 
   363     068E                     	;# 
   364     068F                     	;# 
   365     0690                     	;# 
   366     0691                     	;# 
   367     0692                     	;# 
   368     0693                     	;# 
   369     0694                     	;# 
   370     070C                     	;# 
   371     070D                     	;# 
   372     070E                     	;# 
   373     070F                     	;# 
   374     0710                     	;# 
   375     0711                     	;# 
   376     0712                     	;# 
   377     0713                     	;# 
   378     0714                     	;# 
   379     0716                     	;# 
   380     0717                     	;# 
   381     0718                     	;# 
   382     0719                     	;# 
   383     071A                     	;# 
   384     071B                     	;# 
   385     071C                     	;# 
   386     071D                     	;# 
   387     071E                     	;# 
   388     0796                     	;# 
   389     0797                     	;# 
   390     0798                     	;# 
   391     0799                     	;# 
   392     079A                     	;# 
   393     079B                     	;# 
   394     080C                     	;# 
   395     080D                     	;# 
   396     080E                     	;# 
   397     080F                     	;# 
   398     0810                     	;# 
   399     0811                     	;# 
   400     0812                     	;# 
   401     0813                     	;# 
   402     0814                     	;# 
   403     081A                     	;# 
   404     081B                     	;# 
   405     081C                     	;# 
   406     081D                     	;# 
   407     081E                     	;# 
   408     081F                     	;# 
   409     088C                     	;# 
   410     088D                     	;# 
   411     088E                     	;# 
   412     088F                     	;# 
   413     0890                     	;# 
   414     0891                     	;# 
   415     0892                     	;# 
   416     0893                     	;# 
   417     0895                     	;# 
   418     0896                     	;# 
   419     0897                     	;# 
   420     0898                     	;# 
   421     0899                     	;# 
   422     089A                     	;# 
   423     089B                     	;# 
   424     090C                     	;# 
   425     090E                     	;# 
   426     090F                     	;# 
   427     091F                     	;# 
   428     098F                     	;# 
   429     098F                     	;# 
   430     0990                     	;# 
   431     0991                     	;# 
   432     0992                     	;# 
   433     0993                     	;# 
   434     0994                     	;# 
   435     0995                     	;# 
   436     0996                     	;# 
   437     0997                     	;# 
   438     1E0F                     	;# 
   439     1E10                     	;# 
   440     1E11                     	;# 
   441     1E12                     	;# 
   442     1E13                     	;# 
   443     1E14                     	;# 
   444     1E15                     	;# 
   445     1E16                     	;# 
   446     1E17                     	;# 
   447     1E18                     	;# 
   448     1E19                     	;# 
   449     1E1A                     	;# 
   450     1E1B                     	;# 
   451     1E1C                     	;# 
   452     1E1D                     	;# 
   453     1E1E                     	;# 
   454     1E1F                     	;# 
   455     1E20                     	;# 
   456     1E21                     	;# 
   457     1E22                     	;# 
   458     1E23                     	;# 
   459     1E24                     	;# 
   460     1E25                     	;# 
   461     1E26                     	;# 
   462     1E27                     	;# 
   463     1E28                     	;# 
   464     1E29                     	;# 
   465     1E2A                     	;# 
   466     1E2B                     	;# 
   467     1E2C                     	;# 
   468     1E2D                     	;# 
   469     1E2E                     	;# 
   470     1E2F                     	;# 
   471     1E30                     	;# 
   472     1E31                     	;# 
   473     1E32                     	;# 
   474     1E33                     	;# 
   475     1E34                     	;# 
   476     1E35                     	;# 
   477     1E36                     	;# 
   478     1E37                     	;# 
   479     1E8F                     	;# 
   480     1E90                     	;# 
   481     1E91                     	;# 
   482     1E92                     	;# 
   483     1E93                     	;# 
   484     1E94                     	;# 
   485     1E95                     	;# 
   486     1E96                     	;# 
   487     1E97                     	;# 
   488     1E9C                     	;# 
   489     1E9D                     	;# 
   490     1E9E                     	;# 
   491     1EA1                     	;# 
   492     1EA2                     	;# 
   493     1EA3                     	;# 
   494     1EA4                     	;# 
   495     1EA5                     	;# 
   496     1EA9                     	;# 
   497     1EAA                     	;# 
   498     1EAB                     	;# 
   499     1EAC                     	;# 
   500     1EB1                     	;# 
   501     1EB2                     	;# 
   502     1EB3                     	;# 
   503     1EB8                     	;# 
   504     1EB9                     	;# 
   505     1EBA                     	;# 
   506     1EBB                     	;# 
   507     1EBC                     	;# 
   508     1EBD                     	;# 
   509     1EBE                     	;# 
   510     1EC3                     	;# 
   511     1EC5                     	;# 
   512     1EC6                     	;# 
   513     1EC7                     	;# 
   514     1EC8                     	;# 
   515     1EC9                     	;# 
   516     1ECA                     	;# 
   517     1ECB                     	;# 
   518     1ECC                     	;# 
   519     1F10                     	;# 
   520     1F11                     	;# 
   521     1F12                     	;# 
   522     1F13                     	;# 
   523     1F14                     	;# 
   524     1F15                     	;# 
   525     1F16                     	;# 
   526     1F17                     	;# 
   527     1F18                     	;# 
   528     1F19                     	;# 
   529     1F1A                     	;# 
   530     1F1B                     	;# 
   531     1F1C                     	;# 
   532     1F1D                     	;# 
   533     1F1E                     	;# 
   534     1F1F                     	;# 
   535     1F20                     	;# 
   536     1F21                     	;# 
   537     1F22                     	;# 
   538     1F23                     	;# 
   539     1F24                     	;# 
   540     1F25                     	;# 
   541     1F26                     	;# 
   542     1F27                     	;# 
   543     1F28                     	;# 
   544     1F29                     	;# 
   545     1F2A                     	;# 
   546     1F2B                     	;# 
   547     1F2C                     	;# 
   548     1F2D                     	;# 
   549     1F2E                     	;# 
   550     1F2F                     	;# 
   551     1F30                     	;# 
   552     1F31                     	;# 
   553     1F32                     	;# 
   554     1F38                     	;# 
   555     1F39                     	;# 
   556     1F3A                     	;# 
   557     1F3B                     	;# 
   558     1F3C                     	;# 
   559     1F3D                     	;# 
   560     1F3E                     	;# 
   561     1F3F                     	;# 
   562     1F40                     	;# 
   563     1F41                     	;# 
   564     1F43                     	;# 
   565     1F44                     	;# 
   566     1F45                     	;# 
   567     1F46                     	;# 
   568     1F47                     	;# 
   569     1F48                     	;# 
   570     1F49                     	;# 
   571     1F4A                     	;# 
   572     1F4B                     	;# 
   573     1F4C                     	;# 
   574     1F4E                     	;# 
   575     1F4F                     	;# 
   576     1F50                     	;# 
   577     1F51                     	;# 
   578     1F52                     	;# 
   579     1F53                     	;# 
   580     1F54                     	;# 
   581     1F55                     	;# 
   582     1F56                     	;# 
   583     1F57                     	;# 
   584     1F59                     	;# 
   585     1F5A                     	;# 
   586     1F5B                     	;# 
   587     1F5C                     	;# 
   588     1F5D                     	;# 
   589     1F61                     	;# 
   590     1F62                     	;# 
   591     1F64                     	;# 
   592     1F65                     	;# 
   593     1F66                     	;# 
   594     1F67                     	;# 
   595     1F68                     	;# 
   596     1F69                     	;# 
   597     1F6A                     	;# 
   598     1F6B                     	;# 
   599     1F6C                     	;# 
   600     1F6D                     	;# 
   601     1FE4                     	;# 
   602     1FE5                     	;# 
   603     1FE6                     	;# 
   604     1FE7                     	;# 
   605     1FE8                     	;# 
   606     1FE9                     	;# 
   607     1FEA                     	;# 
   608     1FEB                     	;# 
   609     1FED                     	;# 
   610     1FEE                     	;# 
   611     1FEF                     	;# 
   612     0000                     	;# 
   613     0001                     	;# 
   614     0002                     	;# 
   615     0003                     	;# 
   616     0004                     	;# 
   617     0005                     	;# 
   618     0006                     	;# 
   619     0007                     	;# 
   620     0008                     	;# 
   621     0009                     	;# 
   622     000A                     	;# 
   623     000B                     	;# 
   624     000C                     	;# 
   625     000D                     	;# 
   626     000E                     	;# 
   627     000F                     	;# 
   628     0010                     	;# 
   629     0011                     	;# 
   630     0012                     	;# 
   631     0013                     	;# 
   632     0014                     	;# 
   633     0015                     	;# 
   634     0016                     	;# 
   635     0017                     	;# 
   636     0018                     	;# 
   637     0019                     	;# 
   638     001A                     	;# 
   639     001C                     	;# 
   640     001C                     	;# 
   641     001D                     	;# 
   642     001D                     	;# 
   643     001E                     	;# 
   644     001F                     	;# 
   645     008C                     	;# 
   646     008C                     	;# 
   647     008D                     	;# 
   648     008E                     	;# 
   649     008E                     	;# 
   650     008F                     	;# 
   651     0090                     	;# 
   652     0090                     	;# 
   653     0091                     	;# 
   654     0093                     	;# 
   655     0094                     	;# 
   656     0095                     	;# 
   657     0096                     	;# 
   658     0097                     	;# 
   659     0098                     	;# 
   660     0099                     	;# 
   661     009A                     	;# 
   662     009B                     	;# 
   663     009C                     	;# 
   664     009D                     	;# 
   665     009E                     	;# 
   666     010C                     	;# 
   667     010D                     	;# 
   668     010E                     	;# 
   669     010E                     	;# 
   670     010F                     	;# 
   671     0110                     	;# 
   672     0110                     	;# 
   673     0111                     	;# 
   674     0112                     	;# 
   675     0112                     	;# 
   676     0113                     	;# 
   677     0114                     	;# 
   678     0114                     	;# 
   679     0115                     	;# 
   680     0116                     	;# 
   681     0116                     	;# 
   682     0117                     	;# 
   683     0119                     	;# 
   684     0119                     	;# 
   685     0119                     	;# 
   686     011A                     	;# 
   687     011A                     	;# 
   688     011A                     	;# 
   689     011B                     	;# 
   690     011B                     	;# 
   691     011B                     	;# 
   692     011B                     	;# 
   693     011B                     	;# 
   694     011C                     	;# 
   695     011C                     	;# 
   696     011C                     	;# 
   697     011D                     	;# 
   698     011D                     	;# 
   699     011D                     	;# 
   700     011E                     	;# 
   701     011E                     	;# 
   702     011E                     	;# 
   703     011F                     	;# 
   704     011F                     	;# 
   705     011F                     	;# 
   706     011F                     	;# 
   707     011F                     	;# 
   708     018C                     	;# 
   709     018D                     	;# 
   710     018E                     	;# 
   711     018F                     	;# 
   712     0190                     	;# 
   713     0191                     	;# 
   714     0192                     	;# 
   715     0196                     	;# 
   716     0197                     	;# 
   717     0198                     	;# 
   718     0199                     	;# 
   719     019A                     	;# 
   720     019B                     	;# 
   721     019C                     	;# 
   722     020C                     	;# 
   723     020C                     	;# 
   724     020D                     	;# 
   725     020E                     	;# 
   726     020F                     	;# 
   727     020F                     	;# 
   728     0210                     	;# 
   729     0210                     	;# 
   730     0211                     	;# 
   731     0211                     	;# 
   732     0212                     	;# 
   733     0212                     	;# 
   734     0213                     	;# 
   735     0214                     	;# 
   736     0215                     	;# 
   737     0215                     	;# 
   738     0216                     	;# 
   739     0216                     	;# 
   740     0217                     	;# 
   741     0217                     	;# 
   742     0218                     	;# 
   743     0218                     	;# 
   744     0219                     	;# 
   745     021A                     	;# 
   746     021B                     	;# 
   747     021B                     	;# 
   748     021C                     	;# 
   749     021C                     	;# 
   750     021D                     	;# 
   751     021D                     	;# 
   752     021E                     	;# 
   753     021F                     	;# 
   754     028C                     	;# 
   755     028C                     	;# 
   756     028D                     	;# 
   757     028D                     	;# 
   758     028E                     	;# 
   759     028F                     	;# 
   760     0290                     	;# 
   761     0290                     	;# 
   762     0291                     	;# 
   763     0292                     	;# 
   764     0292                     	;# 
   765     0293                     	;# 
   766     0293                     	;# 
   767     0294                     	;# 
   768     0295                     	;# 
   769     0296                     	;# 
   770     0296                     	;# 
   771     0297                     	;# 
   772     0298                     	;# 
   773     0298                     	;# 
   774     0299                     	;# 
   775     0299                     	;# 
   776     029A                     	;# 
   777     029B                     	;# 
   778     029C                     	;# 
   779     029C                     	;# 
   780     029D                     	;# 
   781     030C                     	;# 
   782     030C                     	;# 
   783     030D                     	;# 
   784     030E                     	;# 
   785     030F                     	;# 
   786     0310                     	;# 
   787     0310                     	;# 
   788     0311                     	;# 
   789     0312                     	;# 
   790     0313                     	;# 
   791     0314                     	;# 
   792     0314                     	;# 
   793     0315                     	;# 
   794     0316                     	;# 
   795     0317                     	;# 
   796     0318                     	;# 
   797     0318                     	;# 
   798     0319                     	;# 
   799     031A                     	;# 
   800     031B                     	;# 
   801     031C                     	;# 
   802     031C                     	;# 
   803     031D                     	;# 
   804     031E                     	;# 
   805     031F                     	;# 
   806     038C                     	;# 
   807     038C                     	;# 
   808     038D                     	;# 
   809     038E                     	;# 
   810     0390                     	;# 
   811     0390                     	;# 
   812     0391                     	;# 
   813     0392                     	;# 
   814     040C                     	;# 
   815     040D                     	;# 
   816     040E                     	;# 
   817     040F                     	;# 
   818     0410                     	;# 
   819     0411                     	;# 
   820     0416                     	;# 
   821     0416                     	;# 
   822     0417                     	;# 
   823     0418                     	;# 
   824     0418                     	;# 
   825     0419                     	;# 
   826     041A                     	;# 
   827     041A                     	;# 
   828     041B                     	;# 
   829     041C                     	;# 
   830     041C                     	;# 
   831     041D                     	;# 
   832     041E                     	;# 
   833     041F                     	;# 
   834     048C                     	;# 
   835     048C                     	;# 
   836     048D                     	;# 
   837     048E                     	;# 
   838     048F                     	;# 
   839     048F                     	;# 
   840     0490                     	;# 
   841     0491                     	;# 
   842     0492                     	;# 
   843     0492                     	;# 
   844     0493                     	;# 
   845     0494                     	;# 
   846     0495                     	;# 
   847     0495                     	;# 
   848     0496                     	;# 
   849     0497                     	;# 
   850     0498                     	;# 
   851     0499                     	;# 
   852     049A                     	;# 
   853     049B                     	;# 
   854     049C                     	;# 
   855     049D                     	;# 
   856     050C                     	;# 
   857     050C                     	;# 
   858     050D                     	;# 
   859     050E                     	;# 
   860     050F                     	;# 
   861     050F                     	;# 
   862     0510                     	;# 
   863     0511                     	;# 
   864     0512                     	;# 
   865     0512                     	;# 
   866     0513                     	;# 
   867     0514                     	;# 
   868     0515                     	;# 
   869     0515                     	;# 
   870     0516                     	;# 
   871     0517                     	;# 
   872     0518                     	;# 
   873     0519                     	;# 
   874     051A                     	;# 
   875     051B                     	;# 
   876     051C                     	;# 
   877     051D                     	;# 
   878     058C                     	;# 
   879     058C                     	;# 
   880     058D                     	;# 
   881     058E                     	;# 
   882     058F                     	;# 
   883     058F                     	;# 
   884     0590                     	;# 
   885     0591                     	;# 
   886     0592                     	;# 
   887     0593                     	;# 
   888     060C                     	;# 
   889     060D                     	;# 
   890     060E                     	;# 
   891     060F                     	;# 
   892     0610                     	;# 
   893     0611                     	;# 
   894     0612                     	;# 
   895     0613                     	;# 
   896     0614                     	;# 
   897     0616                     	;# 
   898     0617                     	;# 
   899     0618                     	;# 
   900     0619                     	;# 
   901     061A                     	;# 
   902     061B                     	;# 
   903     061C                     	;# 
   904     061D                     	;# 
   905     061E                     	;# 
   906     068C                     	;# 
   907     068D                     	;# 
   908     068E                     	;# 
   909     068F                     	;# 
   910     0690                     	;# 
   911     0691                     	;# 
   912     0692                     	;# 
   913     0693                     	;# 
   914     0694                     	;# 
   915     070C                     	;# 
   916     070D                     	;# 
   917     070E                     	;# 
   918     070F                     	;# 
   919     0710                     	;# 
   920     0711                     	;# 
   921     0712                     	;# 
   922     0713                     	;# 
   923     0714                     	;# 
   924     0716                     	;# 
   925     0717                     	;# 
   926     0718                     	;# 
   927     0719                     	;# 
   928     071A                     	;# 
   929     071B                     	;# 
   930     071C                     	;# 
   931     071D                     	;# 
   932     071E                     	;# 
   933     0796                     	;# 
   934     0797                     	;# 
   935     0798                     	;# 
   936     0799                     	;# 
   937     079A                     	;# 
   938     079B                     	;# 
   939     080C                     	;# 
   940     080D                     	;# 
   941     080E                     	;# 
   942     080F                     	;# 
   943     0810                     	;# 
   944     0811                     	;# 
   945     0812                     	;# 
   946     0813                     	;# 
   947     0814                     	;# 
   948     081A                     	;# 
   949     081B                     	;# 
   950     081C                     	;# 
   951     081D                     	;# 
   952     081E                     	;# 
   953     081F                     	;# 
   954     088C                     	;# 
   955     088D                     	;# 
   956     088E                     	;# 
   957     088F                     	;# 
   958     0890                     	;# 
   959     0891                     	;# 
   960     0892                     	;# 
   961     0893                     	;# 
   962     0895                     	;# 
   963     0896                     	;# 
   964     0897                     	;# 
   965     0898                     	;# 
   966     0899                     	;# 
   967     089A                     	;# 
   968     089B                     	;# 
   969     090C                     	;# 
   970     090E                     	;# 
   971     090F                     	;# 
   972     091F                     	;# 
   973     098F                     	;# 
   974     098F                     	;# 
   975     0990                     	;# 
   976     0991                     	;# 
   977     0992                     	;# 
   978     0993                     	;# 
   979     0994                     	;# 
   980     0995                     	;# 
   981     0996                     	;# 
   982     0997                     	;# 
   983     1E0F                     	;# 
   984     1E10                     	;# 
   985     1E11                     	;# 
   986     1E12                     	;# 
   987     1E13                     	;# 
   988     1E14                     	;# 
   989     1E15                     	;# 
   990     1E16                     	;# 
   991     1E17                     	;# 
   992     1E18                     	;# 
   993     1E19                     	;# 
   994     1E1A                     	;# 
   995     1E1B                     	;# 
   996     1E1C                     	;# 
   997     1E1D                     	;# 
   998     1E1E                     	;# 
   999     1E1F                     	;# 
  1000     1E20                     	;# 
  1001     1E21                     	;# 
  1002     1E22                     	;# 
  1003     1E23                     	;# 
  1004     1E24                     	;# 
  1005     1E25                     	;# 
  1006     1E26                     	;# 
  1007     1E27                     	;# 
  1008     1E28                     	;# 
  1009     1E29                     	;# 
  1010     1E2A                     	;# 
  1011     1E2B                     	;# 
  1012     1E2C                     	;# 
  1013     1E2D                     	;# 
  1014     1E2E                     	;# 
  1015     1E2F                     	;# 
  1016     1E30                     	;# 
  1017     1E31                     	;# 
  1018     1E32                     	;# 
  1019     1E33                     	;# 
  1020     1E34                     	;# 
  1021     1E35                     	;# 
  1022     1E36                     	;# 
  1023     1E37                     	;# 
  1024     1E8F                     	;# 
  1025     1E90                     	;# 
  1026     1E91                     	;# 
  1027     1E92                     	;# 
  1028     1E93                     	;# 
  1029     1E94                     	;# 
  1030     1E95                     	;# 
  1031     1E96                     	;# 
  1032     1E97                     	;# 
  1033     1E9C                     	;# 
  1034     1E9D                     	;# 
  1035     1E9E                     	;# 
  1036     1EA1                     	;# 
  1037     1EA2                     	;# 
  1038     1EA3                     	;# 
  1039     1EA4                     	;# 
  1040     1EA5                     	;# 
  1041     1EA9                     	;# 
  1042     1EAA                     	;# 
  1043     1EAB                     	;# 
  1044     1EAC                     	;# 
  1045     1EB1                     	;# 
  1046     1EB2                     	;# 
  1047     1EB3                     	;# 
  1048     1EB8                     	;# 
  1049     1EB9                     	;# 
  1050     1EBA                     	;# 
  1051     1EBB                     	;# 
  1052     1EBC                     	;# 
  1053     1EBD                     	;# 
  1054     1EBE                     	;# 
  1055     1EC3                     	;# 
  1056     1EC5                     	;# 
  1057     1EC6                     	;# 
  1058     1EC7                     	;# 
  1059     1EC8                     	;# 
  1060     1EC9                     	;# 
  1061     1ECA                     	;# 
  1062     1ECB                     	;# 
  1063     1ECC                     	;# 
  1064     1F10                     	;# 
  1065     1F11                     	;# 
  1066     1F12                     	;# 
  1067     1F13                     	;# 
  1068     1F14                     	;# 
  1069     1F15                     	;# 
  1070     1F16                     	;# 
  1071     1F17                     	;# 
  1072     1F18                     	;# 
  1073     1F19                     	;# 
  1074     1F1A                     	;# 
  1075     1F1B                     	;# 
  1076     1F1C                     	;# 
  1077     1F1D                     	;# 
  1078     1F1E                     	;# 
  1079     1F1F                     	;# 
  1080     1F20                     	;# 
  1081     1F21                     	;# 
  1082     1F22                     	;# 
  1083     1F23                     	;# 
  1084     1F24                     	;# 
  1085     1F25                     	;# 
  1086     1F26                     	;# 
  1087     1F27                     	;# 
  1088     1F28                     	;# 
  1089     1F29                     	;# 
  1090     1F2A                     	;# 
  1091     1F2B                     	;# 
  1092     1F2C                     	;# 
  1093     1F2D                     	;# 
  1094     1F2E                     	;# 
  1095     1F2F                     	;# 
  1096     1F30                     	;# 
  1097     1F31                     	;# 
  1098     1F32                     	;# 
  1099     1F38                     	;# 
  1100     1F39                     	;# 
  1101     1F3A                     	;# 
  1102     1F3B                     	;# 
  1103     1F3C                     	;# 
  1104     1F3D                     	;# 
  1105     1F3E                     	;# 
  1106     1F3F                     	;# 
  1107     1F40                     	;# 
  1108     1F41                     	;# 
  1109     1F43                     	;# 
  1110     1F44                     	;# 
  1111     1F45                     	;# 
  1112     1F46                     	;# 
  1113     1F47                     	;# 
  1114     1F48                     	;# 
  1115     1F49                     	;# 
  1116     1F4A                     	;# 
  1117     1F4B                     	;# 
  1118     1F4C                     	;# 
  1119     1F4E                     	;# 
  1120     1F4F                     	;# 
  1121     1F50                     	;# 
  1122     1F51                     	;# 
  1123     1F52                     	;# 
  1124     1F53                     	;# 
  1125     1F54                     	;# 
  1126     1F55                     	;# 
  1127     1F56                     	;# 
  1128     1F57                     	;# 
  1129     1F59                     	;# 
  1130     1F5A                     	;# 
  1131     1F5B                     	;# 
  1132     1F5C                     	;# 
  1133     1F5D                     	;# 
  1134     1F61                     	;# 
  1135     1F62                     	;# 
  1136     1F64                     	;# 
  1137     1F65                     	;# 
  1138     1F66                     	;# 
  1139     1F67                     	;# 
  1140     1F68                     	;# 
  1141     1F69                     	;# 
  1142     1F6A                     	;# 
  1143     1F6B                     	;# 
  1144     1F6C                     	;# 
  1145     1F6D                     	;# 
  1146     1FE4                     	;# 
  1147     1FE5                     	;# 
  1148     1FE6                     	;# 
  1149     1FE7                     	;# 
  1150     1FE8                     	;# 
  1151     1FE9                     	;# 
  1152     1FEA                     	;# 
  1153     1FEB                     	;# 
  1154     1FED                     	;# 
  1155     1FEE                     	;# 
  1156     1FEF                     	;# 
  1157     0000                     	;# 
  1158     0001                     	;# 
  1159     0002                     	;# 
  1160     0003                     	;# 
  1161     0004                     	;# 
  1162     0005                     	;# 
  1163     0006                     	;# 
  1164     0007                     	;# 
  1165     0008                     	;# 
  1166     0009                     	;# 
  1167     000A                     	;# 
  1168     000B                     	;# 
  1169     000C                     	;# 
  1170     000D                     	;# 
  1171     000E                     	;# 
  1172     000F                     	;# 
  1173     0010                     	;# 
  1174     0011                     	;# 
  1175     0012                     	;# 
  1176     0013                     	;# 
  1177     0014                     	;# 
  1178     0015                     	;# 
  1179     0016                     	;# 
  1180     0017                     	;# 
  1181     0018                     	;# 
  1182     0019                     	;# 
  1183     001A                     	;# 
  1184     001C                     	;# 
  1185     001C                     	;# 
  1186     001D                     	;# 
  1187     001D                     	;# 
  1188     001E                     	;# 
  1189     001F                     	;# 
  1190     008C                     	;# 
  1191     008C                     	;# 
  1192     008D                     	;# 
  1193     008E                     	;# 
  1194     008E                     	;# 
  1195     008F                     	;# 
  1196     0090                     	;# 
  1197     0090                     	;# 
  1198     0091                     	;# 
  1199     0093                     	;# 
  1200     0094                     	;# 
  1201     0095                     	;# 
  1202     0096                     	;# 
  1203     0097                     	;# 
  1204     0098                     	;# 
  1205     0099                     	;# 
  1206     009A                     	;# 
  1207     009B                     	;# 
  1208     009C                     	;# 
  1209     009D                     	;# 
  1210     009E                     	;# 
  1211     010C                     	;# 
  1212     010D                     	;# 
  1213     010E                     	;# 
  1214     010E                     	;# 
  1215     010F                     	;# 
  1216     0110                     	;# 
  1217     0110                     	;# 
  1218     0111                     	;# 
  1219     0112                     	;# 
  1220     0112                     	;# 
  1221     0113                     	;# 
  1222     0114                     	;# 
  1223     0114                     	;# 
  1224     0115                     	;# 
  1225     0116                     	;# 
  1226     0116                     	;# 
  1227     0117                     	;# 
  1228     0119                     	;# 
  1229     0119                     	;# 
  1230     0119                     	;# 
  1231     011A                     	;# 
  1232     011A                     	;# 
  1233     011A                     	;# 
  1234     011B                     	;# 
  1235     011B                     	;# 
  1236     011B                     	;# 
  1237     011B                     	;# 
  1238     011B                     	;# 
  1239     011C                     	;# 
  1240     011C                     	;# 
  1241     011C                     	;# 
  1242     011D                     	;# 
  1243     011D                     	;# 
  1244     011D                     	;# 
  1245     011E                     	;# 
  1246     011E                     	;# 
  1247     011E                     	;# 
  1248     011F                     	;# 
  1249     011F                     	;# 
  1250     011F                     	;# 
  1251     011F                     	;# 
  1252     011F                     	;# 
  1253     018C                     	;# 
  1254     018D                     	;# 
  1255     018E                     	;# 
  1256     018F                     	;# 
  1257     0190                     	;# 
  1258     0191                     	;# 
  1259     0192                     	;# 
  1260     0196                     	;# 
  1261     0197                     	;# 
  1262     0198                     	;# 
  1263     0199                     	;# 
  1264     019A                     	;# 
  1265     019B                     	;# 
  1266     019C                     	;# 
  1267     020C                     	;# 
  1268     020C                     	;# 
  1269     020D                     	;# 
  1270     020E                     	;# 
  1271     020F                     	;# 
  1272     020F                     	;# 
  1273     0210                     	;# 
  1274     0210                     	;# 
  1275     0211                     	;# 
  1276     0211                     	;# 
  1277     0212                     	;# 
  1278     0212                     	;# 
  1279     0213                     	;# 
  1280     0214                     	;# 
  1281     0215                     	;# 
  1282     0215                     	;# 
  1283     0216                     	;# 
  1284     0216                     	;# 
  1285     0217                     	;# 
  1286     0217                     	;# 
  1287     0218                     	;# 
  1288     0218                     	;# 
  1289     0219                     	;# 
  1290     021A                     	;# 
  1291     021B                     	;# 
  1292     021B                     	;# 
  1293     021C                     	;# 
  1294     021C                     	;# 
  1295     021D                     	;# 
  1296     021D                     	;# 
  1297     021E                     	;# 
  1298     021F                     	;# 
  1299     028C                     	;# 
  1300     028C                     	;# 
  1301     028D                     	;# 
  1302     028D                     	;# 
  1303     028E                     	;# 
  1304     028F                     	;# 
  1305     0290                     	;# 
  1306     0290                     	;# 
  1307     0291                     	;# 
  1308     0292                     	;# 
  1309     0292                     	;# 
  1310     0293                     	;# 
  1311     0293                     	;# 
  1312     0294                     	;# 
  1313     0295                     	;# 
  1314     0296                     	;# 
  1315     0296                     	;# 
  1316     0297                     	;# 
  1317     0298                     	;# 
  1318     0298                     	;# 
  1319     0299                     	;# 
  1320     0299                     	;# 
  1321     029A                     	;# 
  1322     029B                     	;# 
  1323     029C                     	;# 
  1324     029C                     	;# 
  1325     029D                     	;# 
  1326     030C                     	;# 
  1327     030C                     	;# 
  1328     030D                     	;# 
  1329     030E                     	;# 
  1330     030F                     	;# 
  1331     0310                     	;# 
  1332     0310                     	;# 
  1333     0311                     	;# 
  1334     0312                     	;# 
  1335     0313                     	;# 
  1336     0314                     	;# 
  1337     0314                     	;# 
  1338     0315                     	;# 
  1339     0316                     	;# 
  1340     0317                     	;# 
  1341     0318                     	;# 
  1342     0318                     	;# 
  1343     0319                     	;# 
  1344     031A                     	;# 
  1345     031B                     	;# 
  1346     031C                     	;# 
  1347     031C                     	;# 
  1348     031D                     	;# 
  1349     031E                     	;# 
  1350     031F                     	;# 
  1351     038C                     	;# 
  1352     038C                     	;# 
  1353     038D                     	;# 
  1354     038E                     	;# 
  1355     0390                     	;# 
  1356     0390                     	;# 
  1357     0391                     	;# 
  1358     0392                     	;# 
  1359     040C                     	;# 
  1360     040D                     	;# 
  1361     040E                     	;# 
  1362     040F                     	;# 
  1363     0410                     	;# 
  1364     0411                     	;# 
  1365     0416                     	;# 
  1366     0416                     	;# 
  1367     0417                     	;# 
  1368     0418                     	;# 
  1369     0418                     	;# 
  1370     0419                     	;# 
  1371     041A                     	;# 
  1372     041A                     	;# 
  1373     041B                     	;# 
  1374     041C                     	;# 
  1375     041C                     	;# 
  1376     041D                     	;# 
  1377     041E                     	;# 
  1378     041F                     	;# 
  1379     048C                     	;# 
  1380     048C                     	;# 
  1381     048D                     	;# 
  1382     048E                     	;# 
  1383     048F                     	;# 
  1384     048F                     	;# 
  1385     0490                     	;# 
  1386     0491                     	;# 
  1387     0492                     	;# 
  1388     0492                     	;# 
  1389     0493                     	;# 
  1390     0494                     	;# 
  1391     0495                     	;# 
  1392     0495                     	;# 
  1393     0496                     	;# 
  1394     0497                     	;# 
  1395     0498                     	;# 
  1396     0499                     	;# 
  1397     049A                     	;# 
  1398     049B                     	;# 
  1399     049C                     	;# 
  1400     049D                     	;# 
  1401     050C                     	;# 
  1402     050C                     	;# 
  1403     050D                     	;# 
  1404     050E                     	;# 
  1405     050F                     	;# 
  1406     050F                     	;# 
  1407     0510                     	;# 
  1408     0511                     	;# 
  1409     0512                     	;# 
  1410     0512                     	;# 
  1411     0513                     	;# 
  1412     0514                     	;# 
  1413     0515                     	;# 
  1414     0515                     	;# 
  1415     0516                     	;# 
  1416     0517                     	;# 
  1417     0518                     	;# 
  1418     0519                     	;# 
  1419     051A                     	;# 
  1420     051B                     	;# 
  1421     051C                     	;# 
  1422     051D                     	;# 
  1423     058C                     	;# 
  1424     058C                     	;# 
  1425     058D                     	;# 
  1426     058E                     	;# 
  1427     058F                     	;# 
  1428     058F                     	;# 
  1429     0590                     	;# 
  1430     0591                     	;# 
  1431     0592                     	;# 
  1432     0593                     	;# 
  1433     060C                     	;# 
  1434     060D                     	;# 
  1435     060E                     	;# 
  1436     060F                     	;# 
  1437     0610                     	;# 
  1438     0611                     	;# 
  1439     0612                     	;# 
  1440     0613                     	;# 
  1441     0614                     	;# 
  1442     0616                     	;# 
  1443     0617                     	;# 
  1444     0618                     	;# 
  1445     0619                     	;# 
  1446     061A                     	;# 
  1447     061B                     	;# 
  1448     061C                     	;# 
  1449     061D                     	;# 
  1450     061E                     	;# 
  1451     068C                     	;# 
  1452     068D                     	;# 
  1453     068E                     	;# 
  1454     068F                     	;# 
  1455     0690                     	;# 
  1456     0691                     	;# 
  1457     0692                     	;# 
  1458     0693                     	;# 
  1459     0694                     	;# 
  1460     070C                     	;# 
  1461     070D                     	;# 
  1462     070E                     	;# 
  1463     070F                     	;# 
  1464     0710                     	;# 
  1465     0711                     	;# 
  1466     0712                     	;# 
  1467     0713                     	;# 
  1468     0714                     	;# 
  1469     0716                     	;# 
  1470     0717                     	;# 
  1471     0718                     	;# 
  1472     0719                     	;# 
  1473     071A                     	;# 
  1474     071B                     	;# 
  1475     071C                     	;# 
  1476     071D                     	;# 
  1477     071E                     	;# 
  1478     0796                     	;# 
  1479     0797                     	;# 
  1480     0798                     	;# 
  1481     0799                     	;# 
  1482     079A                     	;# 
  1483     079B                     	;# 
  1484     080C                     	;# 
  1485     080D                     	;# 
  1486     080E                     	;# 
  1487     080F                     	;# 
  1488     0810                     	;# 
  1489     0811                     	;# 
  1490     0812                     	;# 
  1491     0813                     	;# 
  1492     0814                     	;# 
  1493     081A                     	;# 
  1494     081B                     	;# 
  1495     081C                     	;# 
  1496     081D                     	;# 
  1497     081E                     	;# 
  1498     081F                     	;# 
  1499     088C                     	;# 
  1500     088D                     	;# 
  1501     088E                     	;# 
  1502     088F                     	;# 
  1503     0890                     	;# 
  1504     0891                     	;# 
  1505     0892                     	;# 
  1506     0893                     	;# 
  1507     0895                     	;# 
  1508     0896                     	;# 
  1509     0897                     	;# 
  1510     0898                     	;# 
  1511     0899                     	;# 
  1512     089A                     	;# 
  1513     089B                     	;# 
  1514     090C                     	;# 
  1515     090E                     	;# 
  1516     090F                     	;# 
  1517     091F                     	;# 
  1518     098F                     	;# 
  1519     098F                     	;# 
  1520     0990                     	;# 
  1521     0991                     	;# 
  1522     0992                     	;# 
  1523     0993                     	;# 
  1524     0994                     	;# 
  1525     0995                     	;# 
  1526     0996                     	;# 
  1527     0997                     	;# 
  1528     1E0F                     	;# 
  1529     1E10                     	;# 
  1530     1E11                     	;# 
  1531     1E12                     	;# 
  1532     1E13                     	;# 
  1533     1E14                     	;# 
  1534     1E15                     	;# 
  1535     1E16                     	;# 
  1536     1E17                     	;# 
  1537     1E18                     	;# 
  1538     1E19                     	;# 
  1539     1E1A                     	;# 
  1540     1E1B                     	;# 
  1541     1E1C                     	;# 
  1542     1E1D                     	;# 
  1543     1E1E                     	;# 
  1544     1E1F                     	;# 
  1545     1E20                     	;# 
  1546     1E21                     	;# 
  1547     1E22                     	;# 
  1548     1E23                     	;# 
  1549     1E24                     	;# 
  1550     1E25                     	;# 
  1551     1E26                     	;# 
  1552     1E27                     	;# 
  1553     1E28                     	;# 
  1554     1E29                     	;# 
  1555     1E2A                     	;# 
  1556     1E2B                     	;# 
  1557     1E2C                     	;# 
  1558     1E2D                     	;# 
  1559     1E2E                     	;# 
  1560     1E2F                     	;# 
  1561     1E30                     	;# 
  1562     1E31                     	;# 
  1563     1E32                     	;# 
  1564     1E33                     	;# 
  1565     1E34                     	;# 
  1566     1E35                     	;# 
  1567     1E36                     	;# 
  1568     1E37                     	;# 
  1569     1E8F                     	;# 
  1570     1E90                     	;# 
  1571     1E91                     	;# 
  1572     1E92                     	;# 
  1573     1E93                     	;# 
  1574     1E94                     	;# 
  1575     1E95                     	;# 
  1576     1E96                     	;# 
  1577     1E97                     	;# 
  1578     1E9C                     	;# 
  1579     1E9D                     	;# 
  1580     1E9E                     	;# 
  1581     1EA1                     	;# 
  1582     1EA2                     	;# 
  1583     1EA3                     	;# 
  1584     1EA4                     	;# 
  1585     1EA5                     	;# 
  1586     1EA9                     	;# 
  1587     1EAA                     	;# 
  1588     1EAB                     	;# 
  1589     1EAC                     	;# 
  1590     1EB1                     	;# 
  1591     1EB2                     	;# 
  1592     1EB3                     	;# 
  1593     1EB8                     	;# 
  1594     1EB9                     	;# 
  1595     1EBA                     	;# 
  1596     1EBB                     	;# 
  1597     1EBC                     	;# 
  1598     1EBD                     	;# 
  1599     1EBE                     	;# 
  1600     1EC3                     	;# 
  1601     1EC5                     	;# 
  1602     1EC6                     	;# 
  1603     1EC7                     	;# 
  1604     1EC8                     	;# 
  1605     1EC9                     	;# 
  1606     1ECA                     	;# 
  1607     1ECB                     	;# 
  1608     1ECC                     	;# 
  1609     1F10                     	;# 
  1610     1F11                     	;# 
  1611     1F12                     	;# 
  1612     1F13                     	;# 
  1613     1F14                     	;# 
  1614     1F15                     	;# 
  1615     1F16                     	;# 
  1616     1F17                     	;# 
  1617     1F18                     	;# 
  1618     1F19                     	;# 
  1619     1F1A                     	;# 
  1620     1F1B                     	;# 
  1621     1F1C                     	;# 
  1622     1F1D                     	;# 
  1623     1F1E                     	;# 
  1624     1F1F                     	;# 
  1625     1F20                     	;# 
  1626     1F21                     	;# 
  1627     1F22                     	;# 
  1628     1F23                     	;# 
  1629     1F24                     	;# 
  1630     1F25                     	;# 
  1631     1F26                     	;# 
  1632     1F27                     	;# 
  1633     1F28                     	;# 
  1634     1F29                     	;# 
  1635     1F2A                     	;# 
  1636     1F2B                     	;# 
  1637     1F2C                     	;# 
  1638     1F2D                     	;# 
  1639     1F2E                     	;# 
  1640     1F2F                     	;# 
  1641     1F30                     	;# 
  1642     1F31                     	;# 
  1643     1F32                     	;# 
  1644     1F38                     	;# 
  1645     1F39                     	;# 
  1646     1F3A                     	;# 
  1647     1F3B                     	;# 
  1648     1F3C                     	;# 
  1649     1F3D                     	;# 
  1650     1F3E                     	;# 
  1651     1F3F                     	;# 
  1652     1F40                     	;# 
  1653     1F41                     	;# 
  1654     1F43                     	;# 
  1655     1F44                     	;# 
  1656     1F45                     	;# 
  1657     1F46                     	;# 
  1658     1F47                     	;# 
  1659     1F48                     	;# 
  1660     1F49                     	;# 
  1661     1F4A                     	;# 
  1662     1F4B                     	;# 
  1663     1F4C                     	;# 
  1664     1F4E                     	;# 
  1665     1F4F                     	;# 
  1666     1F50                     	;# 
  1667     1F51                     	;# 
  1668     1F52                     	;# 
  1669     1F53                     	;# 
  1670     1F54                     	;# 
  1671     1F55                     	;# 
  1672     1F56                     	;# 
  1673     1F57                     	;# 
  1674     1F59                     	;# 
  1675     1F5A                     	;# 
  1676     1F5B                     	;# 
  1677     1F5C                     	;# 
  1678     1F5D                     	;# 
  1679     1F61                     	;# 
  1680     1F62                     	;# 
  1681     1F64                     	;# 
  1682     1F65                     	;# 
  1683     1F66                     	;# 
  1684     1F67                     	;# 
  1685     1F68                     	;# 
  1686     1F69                     	;# 
  1687     1F6A                     	;# 
  1688     1F6B                     	;# 
  1689     1F6C                     	;# 
  1690     1F6D                     	;# 
  1691     1FE4                     	;# 
  1692     1FE5                     	;# 
  1693     1FE6                     	;# 
  1694     1FE7                     	;# 
  1695     1FE8                     	;# 
  1696     1FE9                     	;# 
  1697     1FEA                     	;# 
  1698     1FEB                     	;# 
  1699     1FED                     	;# 
  1700     1FEE                     	;# 
  1701     1FEF                     	;# 
  1702     0000                     	;# 
  1703     0001                     	;# 
  1704     0002                     	;# 
  1705     0003                     	;# 
  1706     0004                     	;# 
  1707     0005                     	;# 
  1708     0006                     	;# 
  1709     0007                     	;# 
  1710     0008                     	;# 
  1711     0009                     	;# 
  1712     000A                     	;# 
  1713     000B                     	;# 
  1714     000C                     	;# 
  1715     000D                     	;# 
  1716     000E                     	;# 
  1717     000F                     	;# 
  1718     0010                     	;# 
  1719     0011                     	;# 
  1720     0012                     	;# 
  1721     0013                     	;# 
  1722     0014                     	;# 
  1723     0015                     	;# 
  1724     0016                     	;# 
  1725     0017                     	;# 
  1726     0018                     	;# 
  1727     0019                     	;# 
  1728     001A                     	;# 
  1729     001C                     	;# 
  1730     001C                     	;# 
  1731     001D                     	;# 
  1732     001D                     	;# 
  1733     001E                     	;# 
  1734     001F                     	;# 
  1735     008C                     	;# 
  1736     008C                     	;# 
  1737     008D                     	;# 
  1738     008E                     	;# 
  1739     008E                     	;# 
  1740     008F                     	;# 
  1741     0090                     	;# 
  1742     0090                     	;# 
  1743     0091                     	;# 
  1744     0093                     	;# 
  1745     0094                     	;# 
  1746     0095                     	;# 
  1747     0096                     	;# 
  1748     0097                     	;# 
  1749     0098                     	;# 
  1750     0099                     	;# 
  1751     009A                     	;# 
  1752     009B                     	;# 
  1753     009C                     	;# 
  1754     009D                     	;# 
  1755     009E                     	;# 
  1756     010C                     	;# 
  1757     010D                     	;# 
  1758     010E                     	;# 
  1759     010E                     	;# 
  1760     010F                     	;# 
  1761     0110                     	;# 
  1762     0110                     	;# 
  1763     0111                     	;# 
  1764     0112                     	;# 
  1765     0112                     	;# 
  1766     0113                     	;# 
  1767     0114                     	;# 
  1768     0114                     	;# 
  1769     0115                     	;# 
  1770     0116                     	;# 
  1771     0116                     	;# 
  1772     0117                     	;# 
  1773     0119                     	;# 
  1774     0119                     	;# 
  1775     0119                     	;# 
  1776     011A                     	;# 
  1777     011A                     	;# 
  1778     011A                     	;# 
  1779     011B                     	;# 
  1780     011B                     	;# 
  1781     011B                     	;# 
  1782     011B                     	;# 
  1783     011B                     	;# 
  1784     011C                     	;# 
  1785     011C                     	;# 
  1786     011C                     	;# 
  1787     011D                     	;# 
  1788     011D                     	;# 
  1789     011D                     	;# 
  1790     011E                     	;# 
  1791     011E                     	;# 
  1792     011E                     	;# 
  1793     011F                     	;# 
  1794     011F                     	;# 
  1795     011F                     	;# 
  1796     011F                     	;# 
  1797     011F                     	;# 
  1798     018C                     	;# 
  1799     018D                     	;# 
  1800     018E                     	;# 
  1801     018F                     	;# 
  1802     0190                     	;# 
  1803     0191                     	;# 
  1804     0192                     	;# 
  1805     0196                     	;# 
  1806     0197                     	;# 
  1807     0198                     	;# 
  1808     0199                     	;# 
  1809     019A                     	;# 
  1810     019B                     	;# 
  1811     019C                     	;# 
  1812     020C                     	;# 
  1813     020C                     	;# 
  1814     020D                     	;# 
  1815     020E                     	;# 
  1816     020F                     	;# 
  1817     020F                     	;# 
  1818     0210                     	;# 
  1819     0210                     	;# 
  1820     0211                     	;# 
  1821     0211                     	;# 
  1822     0212                     	;# 
  1823     0212                     	;# 
  1824     0213                     	;# 
  1825     0214                     	;# 
  1826     0215                     	;# 
  1827     0215                     	;# 
  1828     0216                     	;# 
  1829     0216                     	;# 
  1830     0217                     	;# 
  1831     0217                     	;# 
  1832     0218                     	;# 
  1833     0218                     	;# 
  1834     0219                     	;# 
  1835     021A                     	;# 
  1836     021B                     	;# 
  1837     021B                     	;# 
  1838     021C                     	;# 
  1839     021C                     	;# 
  1840     021D                     	;# 
  1841     021D                     	;# 
  1842     021E                     	;# 
  1843     021F                     	;# 
  1844     028C                     	;# 
  1845     028C                     	;# 
  1846     028D                     	;# 
  1847     028D                     	;# 
  1848     028E                     	;# 
  1849     028F                     	;# 
  1850     0290                     	;# 
  1851     0290                     	;# 
  1852     0291                     	;# 
  1853     0292                     	;# 
  1854     0292                     	;# 
  1855     0293                     	;# 
  1856     0293                     	;# 
  1857     0294                     	;# 
  1858     0295                     	;# 
  1859     0296                     	;# 
  1860     0296                     	;# 
  1861     0297                     	;# 
  1862     0298                     	;# 
  1863     0298                     	;# 
  1864     0299                     	;# 
  1865     0299                     	;# 
  1866     029A                     	;# 
  1867     029B                     	;# 
  1868     029C                     	;# 
  1869     029C                     	;# 
  1870     029D                     	;# 
  1871     030C                     	;# 
  1872     030C                     	;# 
  1873     030D                     	;# 
  1874     030E                     	;# 
  1875     030F                     	;# 
  1876     0310                     	;# 
  1877     0310                     	;# 
  1878     0311                     	;# 
  1879     0312                     	;# 
  1880     0313                     	;# 
  1881     0314                     	;# 
  1882     0314                     	;# 
  1883     0315                     	;# 
  1884     0316                     	;# 
  1885     0317                     	;# 
  1886     0318                     	;# 
  1887     0318                     	;# 
  1888     0319                     	;# 
  1889     031A                     	;# 
  1890     031B                     	;# 
  1891     031C                     	;# 
  1892     031C                     	;# 
  1893     031D                     	;# 
  1894     031E                     	;# 
  1895     031F                     	;# 
  1896     038C                     	;# 
  1897     038C                     	;# 
  1898     038D                     	;# 
  1899     038E                     	;# 
  1900     0390                     	;# 
  1901     0390                     	;# 
  1902     0391                     	;# 
  1903     0392                     	;# 
  1904     040C                     	;# 
  1905     040D                     	;# 
  1906     040E                     	;# 
  1907     040F                     	;# 
  1908     0410                     	;# 
  1909     0411                     	;# 
  1910     0416                     	;# 
  1911     0416                     	;# 
  1912     0417                     	;# 
  1913     0418                     	;# 
  1914     0418                     	;# 
  1915     0419                     	;# 
  1916     041A                     	;# 
  1917     041A                     	;# 
  1918     041B                     	;# 
  1919     041C                     	;# 
  1920     041C                     	;# 
  1921     041D                     	;# 
  1922     041E                     	;# 
  1923     041F                     	;# 
  1924     048C                     	;# 
  1925     048C                     	;# 
  1926     048D                     	;# 
  1927     048E                     	;# 
  1928     048F                     	;# 
  1929     048F                     	;# 
  1930     0490                     	;# 
  1931     0491                     	;# 
  1932     0492                     	;# 
  1933     0492                     	;# 
  1934     0493                     	;# 
  1935     0494                     	;# 
  1936     0495                     	;# 
  1937     0495                     	;# 
  1938     0496                     	;# 
  1939     0497                     	;# 
  1940     0498                     	;# 
  1941     0499                     	;# 
  1942     049A                     	;# 
  1943     049B                     	;# 
  1944     049C                     	;# 
  1945     049D                     	;# 
  1946     050C                     	;# 
  1947     050C                     	;# 
  1948     050D                     	;# 
  1949     050E                     	;# 
  1950     050F                     	;# 
  1951     050F                     	;# 
  1952     0510                     	;# 
  1953     0511                     	;# 
  1954     0512                     	;# 
  1955     0512                     	;# 
  1956     0513                     	;# 
  1957     0514                     	;# 
  1958     0515                     	;# 
  1959     0515                     	;# 
  1960     0516                     	;# 
  1961     0517                     	;# 
  1962     0518                     	;# 
  1963     0519                     	;# 
  1964     051A                     	;# 
  1965     051B                     	;# 
  1966     051C                     	;# 
  1967     051D                     	;# 
  1968     058C                     	;# 
  1969     058C                     	;# 
  1970     058D                     	;# 
  1971     058E                     	;# 
  1972     058F                     	;# 
  1973     058F                     	;# 
  1974     0590                     	;# 
  1975     0591                     	;# 
  1976     0592                     	;# 
  1977     0593                     	;# 
  1978     060C                     	;# 
  1979     060D                     	;# 
  1980     060E                     	;# 
  1981     060F                     	;# 
  1982     0610                     	;# 
  1983     0611                     	;# 
  1984     0612                     	;# 
  1985     0613                     	;# 
  1986     0614                     	;# 
  1987     0616                     	;# 
  1988     0617                     	;# 
  1989     0618                     	;# 
  1990     0619                     	;# 
  1991     061A                     	;# 
  1992     061B                     	;# 
  1993     061C                     	;# 
  1994     061D                     	;# 
  1995     061E                     	;# 
  1996     068C                     	;# 
  1997     068D                     	;# 
  1998     068E                     	;# 
  1999     068F                     	;# 
  2000     0690                     	;# 
  2001     0691                     	;# 
  2002     0692                     	;# 
  2003     0693                     	;# 
  2004     0694                     	;# 
  2005     070C                     	;# 
  2006     070D                     	;# 
  2007     070E                     	;# 
  2008     070F                     	;# 
  2009     0710                     	;# 
  2010     0711                     	;# 
  2011     0712                     	;# 
  2012     0713                     	;# 
  2013     0714                     	;# 
  2014     0716                     	;# 
  2015     0717                     	;# 
  2016     0718                     	;# 
  2017     0719                     	;# 
  2018     071A                     	;# 
  2019     071B                     	;# 
  2020     071C                     	;# 
  2021     071D                     	;# 
  2022     071E                     	;# 
  2023     0796                     	;# 
  2024     0797                     	;# 
  2025     0798                     	;# 
  2026     0799                     	;# 
  2027     079A                     	;# 
  2028     079B                     	;# 
  2029     080C                     	;# 
  2030     080D                     	;# 
  2031     080E                     	;# 
  2032     080F                     	;# 
  2033     0810                     	;# 
  2034     0811                     	;# 
  2035     0812                     	;# 
  2036     0813                     	;# 
  2037     0814                     	;# 
  2038     081A                     	;# 
  2039     081B                     	;# 
  2040     081C                     	;# 
  2041     081D                     	;# 
  2042     081E                     	;# 
  2043     081F                     	;# 
  2044     088C                     	;# 
  2045     088D                     	;# 
  2046     088E                     	;# 
  2047     088F                     	;# 
  2048     0890                     	;# 
  2049     0891                     	;# 
  2050     0892                     	;# 
  2051     0893                     	;# 
  2052     0895                     	;# 
  2053     0896                     	;# 
  2054     0897                     	;# 
  2055     0898                     	;# 
  2056     0899                     	;# 
  2057     089A                     	;# 
  2058     089B                     	;# 
  2059     090C                     	;# 
  2060     090E                     	;# 
  2061     090F                     	;# 
  2062     091F                     	;# 
  2063     098F                     	;# 
  2064     098F                     	;# 
  2065     0990                     	;# 
  2066     0991                     	;# 
  2067     0992                     	;# 
  2068     0993                     	;# 
  2069     0994                     	;# 
  2070     0995                     	;# 
  2071     0996                     	;# 
  2072     0997                     	;# 
  2073     1E0F                     	;# 
  2074     1E10                     	;# 
  2075     1E11                     	;# 
  2076     1E12                     	;# 
  2077     1E13                     	;# 
  2078     1E14                     	;# 
  2079     1E15                     	;# 
  2080     1E16                     	;# 
  2081     1E17                     	;# 
  2082     1E18                     	;# 
  2083     1E19                     	;# 
  2084     1E1A                     	;# 
  2085     1E1B                     	;# 
  2086     1E1C                     	;# 
  2087     1E1D                     	;# 
  2088     1E1E                     	;# 
  2089     1E1F                     	;# 
  2090     1E20                     	;# 
  2091     1E21                     	;# 
  2092     1E22                     	;# 
  2093     1E23                     	;# 
  2094     1E24                     	;# 
  2095     1E25                     	;# 
  2096     1E26                     	;# 
  2097     1E27                     	;# 
  2098     1E28                     	;# 
  2099     1E29                     	;# 
  2100     1E2A                     	;# 
  2101     1E2B                     	;# 
  2102     1E2C                     	;# 
  2103     1E2D                     	;# 
  2104     1E2E                     	;# 
  2105     1E2F                     	;# 
  2106     1E30                     	;# 
  2107     1E31                     	;# 
  2108     1E32                     	;# 
  2109     1E33                     	;# 
  2110     1E34                     	;# 
  2111     1E35                     	;# 
  2112     1E36                     	;# 
  2113     1E37                     	;# 
  2114     1E8F                     	;# 
  2115     1E90                     	;# 
  2116     1E91                     	;# 
  2117     1E92                     	;# 
  2118     1E93                     	;# 
  2119     1E94                     	;# 
  2120     1E95                     	;# 
  2121     1E96                     	;# 
  2122     1E97                     	;# 
  2123     1E9C                     	;# 
  2124     1E9D                     	;# 
  2125     1E9E                     	;# 
  2126     1EA1                     	;# 
  2127     1EA2                     	;# 
  2128     1EA3                     	;# 
  2129     1EA4                     	;# 
  2130     1EA5                     	;# 
  2131     1EA9                     	;# 
  2132     1EAA                     	;# 
  2133     1EAB                     	;# 
  2134     1EAC                     	;# 
  2135     1EB1                     	;# 
  2136     1EB2                     	;# 
  2137     1EB3                     	;# 
  2138     1EB8                     	;# 
  2139     1EB9                     	;# 
  2140     1EBA                     	;# 
  2141     1EBB                     	;# 
  2142     1EBC                     	;# 
  2143     1EBD                     	;# 
  2144     1EBE                     	;# 
  2145     1EC3                     	;# 
  2146     1EC5                     	;# 
  2147     1EC6                     	;# 
  2148     1EC7                     	;# 
  2149     1EC8                     	;# 
  2150     1EC9                     	;# 
  2151     1ECA                     	;# 
  2152     1ECB                     	;# 
  2153     1ECC                     	;# 
  2154     1F10                     	;# 
  2155     1F11                     	;# 
  2156     1F12                     	;# 
  2157     1F13                     	;# 
  2158     1F14                     	;# 
  2159     1F15                     	;# 
  2160     1F16                     	;# 
  2161     1F17                     	;# 
  2162     1F18                     	;# 
  2163     1F19                     	;# 
  2164     1F1A                     	;# 
  2165     1F1B                     	;# 
  2166     1F1C                     	;# 
  2167     1F1D                     	;# 
  2168     1F1E                     	;# 
  2169     1F1F                     	;# 
  2170     1F20                     	;# 
  2171     1F21                     	;# 
  2172     1F22                     	;# 
  2173     1F23                     	;# 
  2174     1F24                     	;# 
  2175     1F25                     	;# 
  2176     1F26                     	;# 
  2177     1F27                     	;# 
  2178     1F28                     	;# 
  2179     1F29                     	;# 
  2180     1F2A                     	;# 
  2181     1F2B                     	;# 
  2182     1F2C                     	;# 
  2183     1F2D                     	;# 
  2184     1F2E                     	;# 
  2185     1F2F                     	;# 
  2186     1F30                     	;# 
  2187     1F31                     	;# 
  2188     1F32                     	;# 
  2189     1F38                     	;# 
  2190     1F39                     	;# 
  2191     1F3A                     	;# 
  2192     1F3B                     	;# 
  2193     1F3C                     	;# 
  2194     1F3D                     	;# 
  2195     1F3E                     	;# 
  2196     1F3F                     	;# 
  2197     1F40                     	;# 
  2198     1F41                     	;# 
  2199     1F43                     	;# 
  2200     1F44                     	;# 
  2201     1F45                     	;# 
  2202     1F46                     	;# 
  2203     1F47                     	;# 
  2204     1F48                     	;# 
  2205     1F49                     	;# 
  2206     1F4A                     	;# 
  2207     1F4B                     	;# 
  2208     1F4C                     	;# 
  2209     1F4E                     	;# 
  2210     1F4F                     	;# 
  2211     1F50                     	;# 
  2212     1F51                     	;# 
  2213     1F52                     	;# 
  2214     1F53                     	;# 
  2215     1F54                     	;# 
  2216     1F55                     	;# 
  2217     1F56                     	;# 
  2218     1F57                     	;# 
  2219     1F59                     	;# 
  2220     1F5A                     	;# 
  2221     1F5B                     	;# 
  2222     1F5C                     	;# 
  2223     1F5D                     	;# 
  2224     1F61                     	;# 
  2225     1F62                     	;# 
  2226     1F64                     	;# 
  2227     1F65                     	;# 
  2228     1F66                     	;# 
  2229     1F67                     	;# 
  2230     1F68                     	;# 
  2231     1F69                     	;# 
  2232     1F6A                     	;# 
  2233     1F6B                     	;# 
  2234     1F6C                     	;# 
  2235     1F6D                     	;# 
  2236     1FE4                     	;# 
  2237     1FE5                     	;# 
  2238     1FE6                     	;# 
  2239     1FE7                     	;# 
  2240     1FE8                     	;# 
  2241     1FE9                     	;# 
  2242     1FEA                     	;# 
  2243     1FEB                     	;# 
  2244     1FED                     	;# 
  2245     1FEE                     	;# 
  2246     1FEF                     	;# 
  2247     0000                     	;# 
  2248     0001                     	;# 
  2249     0002                     	;# 
  2250     0003                     	;# 
  2251     0004                     	;# 
  2252     0005                     	;# 
  2253     0006                     	;# 
  2254     0007                     	;# 
  2255     0008                     	;# 
  2256     0009                     	;# 
  2257     000A                     	;# 
  2258     000B                     	;# 
  2259     000C                     	;# 
  2260     000D                     	;# 
  2261     000E                     	;# 
  2262     000F                     	;# 
  2263     0010                     	;# 
  2264     0011                     	;# 
  2265     0012                     	;# 
  2266     0013                     	;# 
  2267     0014                     	;# 
  2268     0015                     	;# 
  2269     0016                     	;# 
  2270     0017                     	;# 
  2271     0018                     	;# 
  2272     0019                     	;# 
  2273     001A                     	;# 
  2274     001C                     	;# 
  2275     001C                     	;# 
  2276     001D                     	;# 
  2277     001D                     	;# 
  2278     001E                     	;# 
  2279     001F                     	;# 
  2280     008C                     	;# 
  2281     008C                     	;# 
  2282     008D                     	;# 
  2283     008E                     	;# 
  2284     008E                     	;# 
  2285     008F                     	;# 
  2286     0090                     	;# 
  2287     0090                     	;# 
  2288     0091                     	;# 
  2289     0093                     	;# 
  2290     0094                     	;# 
  2291     0095                     	;# 
  2292     0096                     	;# 
  2293     0097                     	;# 
  2294     0098                     	;# 
  2295     0099                     	;# 
  2296     009A                     	;# 
  2297     009B                     	;# 
  2298     009C                     	;# 
  2299     009D                     	;# 
  2300     009E                     	;# 
  2301     010C                     	;# 
  2302     010D                     	;# 
  2303     010E                     	;# 
  2304     010E                     	;# 
  2305     010F                     	;# 
  2306     0110                     	;# 
  2307     0110                     	;# 
  2308     0111                     	;# 
  2309     0112                     	;# 
  2310     0112                     	;# 
  2311     0113                     	;# 
  2312     0114                     	;# 
  2313     0114                     	;# 
  2314     0115                     	;# 
  2315     0116                     	;# 
  2316     0116                     	;# 
  2317     0117                     	;# 
  2318     0119                     	;# 
  2319     0119                     	;# 
  2320     0119                     	;# 
  2321     011A                     	;# 
  2322     011A                     	;# 
  2323     011A                     	;# 
  2324     011B                     	;# 
  2325     011B                     	;# 
  2326     011B                     	;# 
  2327     011B                     	;# 
  2328     011B                     	;# 
  2329     011C                     	;# 
  2330     011C                     	;# 
  2331     011C                     	;# 
  2332     011D                     	;# 
  2333     011D                     	;# 
  2334     011D                     	;# 
  2335     011E                     	;# 
  2336     011E                     	;# 
  2337     011E                     	;# 
  2338     011F                     	;# 
  2339     011F                     	;# 
  2340     011F                     	;# 
  2341     011F                     	;# 
  2342     011F                     	;# 
  2343     018C                     	;# 
  2344     018D                     	;# 
  2345     018E                     	;# 
  2346     018F                     	;# 
  2347     0190                     	;# 
  2348     0191                     	;# 
  2349     0192                     	;# 
  2350     0196                     	;# 
  2351     0197                     	;# 
  2352     0198                     	;# 
  2353     0199                     	;# 
  2354     019A                     	;# 
  2355     019B                     	;# 
  2356     019C                     	;# 
  2357     020C                     	;# 
  2358     020C                     	;# 
  2359     020D                     	;# 
  2360     020E                     	;# 
  2361     020F                     	;# 
  2362     020F                     	;# 
  2363     0210                     	;# 
  2364     0210                     	;# 
  2365     0211                     	;# 
  2366     0211                     	;# 
  2367     0212                     	;# 
  2368     0212                     	;# 
  2369     0213                     	;# 
  2370     0214                     	;# 
  2371     0215                     	;# 
  2372     0215                     	;# 
  2373     0216                     	;# 
  2374     0216                     	;# 
  2375     0217                     	;# 
  2376     0217                     	;# 
  2377     0218                     	;# 
  2378     0218                     	;# 
  2379     0219                     	;# 
  2380     021A                     	;# 
  2381     021B                     	;# 
  2382     021B                     	;# 
  2383     021C                     	;# 
  2384     021C                     	;# 
  2385     021D                     	;# 
  2386     021D                     	;# 
  2387     021E                     	;# 
  2388     021F                     	;# 
  2389     028C                     	;# 
  2390     028C                     	;# 
  2391     028D                     	;# 
  2392     028D                     	;# 
  2393     028E                     	;# 
  2394     028F                     	;# 
  2395     0290                     	;# 
  2396     0290                     	;# 
  2397     0291                     	;# 
  2398     0292                     	;# 
  2399     0292                     	;# 
  2400     0293                     	;# 
  2401     0293                     	;# 
  2402     0294                     	;# 
  2403     0295                     	;# 
  2404     0296                     	;# 
  2405     0296                     	;# 
  2406     0297                     	;# 
  2407     0298                     	;# 
  2408     0298                     	;# 
  2409     0299                     	;# 
  2410     0299                     	;# 
  2411     029A                     	;# 
  2412     029B                     	;# 
  2413     029C                     	;# 
  2414     029C                     	;# 
  2415     029D                     	;# 
  2416     030C                     	;# 
  2417     030C                     	;# 
  2418     030D                     	;# 
  2419     030E                     	;# 
  2420     030F                     	;# 
  2421     0310                     	;# 
  2422     0310                     	;# 
  2423     0311                     	;# 
  2424     0312                     	;# 
  2425     0313                     	;# 
  2426     0314                     	;# 
  2427     0314                     	;# 
  2428     0315                     	;# 
  2429     0316                     	;# 
  2430     0317                     	;# 
  2431     0318                     	;# 
  2432     0318                     	;# 
  2433     0319                     	;# 
  2434     031A                     	;# 
  2435     031B                     	;# 
  2436     031C                     	;# 
  2437     031C                     	;# 
  2438     031D                     	;# 
  2439     031E                     	;# 
  2440     031F                     	;# 
  2441     038C                     	;# 
  2442     038C                     	;# 
  2443     038D                     	;# 
  2444     038E                     	;# 
  2445     0390                     	;# 
  2446     0390                     	;# 
  2447     0391                     	;# 
  2448     0392                     	;# 
  2449     040C                     	;# 
  2450     040D                     	;# 
  2451     040E                     	;# 
  2452     040F                     	;# 
  2453     0410                     	;# 
  2454     0411                     	;# 
  2455     0416                     	;# 
  2456     0416                     	;# 
  2457     0417                     	;# 
  2458     0418                     	;# 
  2459     0418                     	;# 
  2460     0419                     	;# 
  2461     041A                     	;# 
  2462     041A                     	;# 
  2463     041B                     	;# 
  2464     041C                     	;# 
  2465     041C                     	;# 
  2466     041D                     	;# 
  2467     041E                     	;# 
  2468     041F                     	;# 
  2469     048C                     	;# 
  2470     048C                     	;# 
  2471     048D                     	;# 
  2472     048E                     	;# 
  2473     048F                     	;# 
  2474     048F                     	;# 
  2475     0490                     	;# 
  2476     0491                     	;# 
  2477     0492                     	;# 
  2478     0492                     	;# 
  2479     0493                     	;# 
  2480     0494                     	;# 
  2481     0495                     	;# 
  2482     0495                     	;# 
  2483     0496                     	;# 
  2484     0497                     	;# 
  2485     0498                     	;# 
  2486     0499                     	;# 
  2487     049A                     	;# 
  2488     049B                     	;# 
  2489     049C                     	;# 
  2490     049D                     	;# 
  2491     050C                     	;# 
  2492     050C                     	;# 
  2493     050D                     	;# 
  2494     050E                     	;# 
  2495     050F                     	;# 
  2496     050F                     	;# 
  2497     0510                     	;# 
  2498     0511                     	;# 
  2499     0512                     	;# 
  2500     0512                     	;# 
  2501     0513                     	;# 
  2502     0514                     	;# 
  2503     0515                     	;# 
  2504     0515                     	;# 
  2505     0516                     	;# 
  2506     0517                     	;# 
  2507     0518                     	;# 
  2508     0519                     	;# 
  2509     051A                     	;# 
  2510     051B                     	;# 
  2511     051C                     	;# 
  2512     051D                     	;# 
  2513     058C                     	;# 
  2514     058C                     	;# 
  2515     058D                     	;# 
  2516     058E                     	;# 
  2517     058F                     	;# 
  2518     058F                     	;# 
  2519     0590                     	;# 
  2520     0591                     	;# 
  2521     0592                     	;# 
  2522     0593                     	;# 
  2523     060C                     	;# 
  2524     060D                     	;# 
  2525     060E                     	;# 
  2526     060F                     	;# 
  2527     0610                     	;# 
  2528     0611                     	;# 
  2529     0612                     	;# 
  2530     0613                     	;# 
  2531     0614                     	;# 
  2532     0616                     	;# 
  2533     0617                     	;# 
  2534     0618                     	;# 
  2535     0619                     	;# 
  2536     061A                     	;# 
  2537     061B                     	;# 
  2538     061C                     	;# 
  2539     061D                     	;# 
  2540     061E                     	;# 
  2541     068C                     	;# 
  2542     068D                     	;# 
  2543     068E                     	;# 
  2544     068F                     	;# 
  2545     0690                     	;# 
  2546     0691                     	;# 
  2547     0692                     	;# 
  2548     0693                     	;# 
  2549     0694                     	;# 
  2550     070C                     	;# 
  2551     070D                     	;# 
  2552     070E                     	;# 
  2553     070F                     	;# 
  2554     0710                     	;# 
  2555     0711                     	;# 
  2556     0712                     	;# 
  2557     0713                     	;# 
  2558     0714                     	;# 
  2559     0716                     	;# 
  2560     0717                     	;# 
  2561     0718                     	;# 
  2562     0719                     	;# 
  2563     071A                     	;# 
  2564     071B                     	;# 
  2565     071C                     	;# 
  2566     071D                     	;# 
  2567     071E                     	;# 
  2568     0796                     	;# 
  2569     0797                     	;# 
  2570     0798                     	;# 
  2571     0799                     	;# 
  2572     079A                     	;# 
  2573     079B                     	;# 
  2574     080C                     	;# 
  2575     080D                     	;# 
  2576     080E                     	;# 
  2577     080F                     	;# 
  2578     0810                     	;# 
  2579     0811                     	;# 
  2580     0812                     	;# 
  2581     0813                     	;# 
  2582     0814                     	;# 
  2583     081A                     	;# 
  2584     081B                     	;# 
  2585     081C                     	;# 
  2586     081D                     	;# 
  2587     081E                     	;# 
  2588     081F                     	;# 
  2589     088C                     	;# 
  2590     088D                     	;# 
  2591     088E                     	;# 
  2592     088F                     	;# 
  2593     0890                     	;# 
  2594     0891                     	;# 
  2595     0892                     	;# 
  2596     0893                     	;# 
  2597     0895                     	;# 
  2598     0896                     	;# 
  2599     0897                     	;# 
  2600     0898                     	;# 
  2601     0899                     	;# 
  2602     089A                     	;# 
  2603     089B                     	;# 
  2604     090C                     	;# 
  2605     090E                     	;# 
  2606     090F                     	;# 
  2607     091F                     	;# 
  2608     098F                     	;# 
  2609     098F                     	;# 
  2610     0990                     	;# 
  2611     0991                     	;# 
  2612     0992                     	;# 
  2613     0993                     	;# 
  2614     0994                     	;# 
  2615     0995                     	;# 
  2616     0996                     	;# 
  2617     0997                     	;# 
  2618     1E0F                     	;# 
  2619     1E10                     	;# 
  2620     1E11                     	;# 
  2621     1E12                     	;# 
  2622     1E13                     	;# 
  2623     1E14                     	;# 
  2624     1E15                     	;# 
  2625     1E16                     	;# 
  2626     1E17                     	;# 
  2627     1E18                     	;# 
  2628     1E19                     	;# 
  2629     1E1A                     	;# 
  2630     1E1B                     	;# 
  2631     1E1C                     	;# 
  2632     1E1D                     	;# 
  2633     1E1E                     	;# 
  2634     1E1F                     	;# 
  2635     1E20                     	;# 
  2636     1E21                     	;# 
  2637     1E22                     	;# 
  2638     1E23                     	;# 
  2639     1E24                     	;# 
  2640     1E25                     	;# 
  2641     1E26                     	;# 
  2642     1E27                     	;# 
  2643     1E28                     	;# 
  2644     1E29                     	;# 
  2645     1E2A                     	;# 
  2646     1E2B                     	;# 
  2647     1E2C                     	;# 
  2648     1E2D                     	;# 
  2649     1E2E                     	;# 
  2650     1E2F                     	;# 
  2651     1E30                     	;# 
  2652     1E31                     	;# 
  2653     1E32                     	;# 
  2654     1E33                     	;# 
  2655     1E34                     	;# 
  2656     1E35                     	;# 
  2657     1E36                     	;# 
  2658     1E37                     	;# 
  2659     1E8F                     	;# 
  2660     1E90                     	;# 
  2661     1E91                     	;# 
  2662     1E92                     	;# 
  2663     1E93                     	;# 
  2664     1E94                     	;# 
  2665     1E95                     	;# 
  2666     1E96                     	;# 
  2667     1E97                     	;# 
  2668     1E9C                     	;# 
  2669     1E9D                     	;# 
  2670     1E9E                     	;# 
  2671     1EA1                     	;# 
  2672     1EA2                     	;# 
  2673     1EA3                     	;# 
  2674     1EA4                     	;# 
  2675     1EA5                     	;# 
  2676     1EA9                     	;# 
  2677     1EAA                     	;# 
  2678     1EAB                     	;# 
  2679     1EAC                     	;# 
  2680     1EB1                     	;# 
  2681     1EB2                     	;# 
  2682     1EB3                     	;# 
  2683     1EB8                     	;# 
  2684     1EB9                     	;# 
  2685     1EBA                     	;# 
  2686     1EBB                     	;# 
  2687     1EBC                     	;# 
  2688     1EBD                     	;# 
  2689     1EBE                     	;# 
  2690     1EC3                     	;# 
  2691     1EC5                     	;# 
  2692     1EC6                     	;# 
  2693     1EC7                     	;# 
  2694     1EC8                     	;# 
  2695     1EC9                     	;# 
  2696     1ECA                     	;# 
  2697     1ECB                     	;# 
  2698     1ECC                     	;# 
  2699     1F10                     	;# 
  2700     1F11                     	;# 
  2701     1F12                     	;# 
  2702     1F13                     	;# 
  2703     1F14                     	;# 
  2704     1F15                     	;# 
  2705     1F16                     	;# 
  2706     1F17                     	;# 
  2707     1F18                     	;# 
  2708     1F19                     	;# 
  2709     1F1A                     	;# 
  2710     1F1B                     	;# 
  2711     1F1C                     	;# 
  2712     1F1D                     	;# 
  2713     1F1E                     	;# 
  2714     1F1F                     	;# 
  2715     1F20                     	;# 
  2716     1F21                     	;# 
  2717     1F22                     	;# 
  2718     1F23                     	;# 
  2719     1F24                     	;# 
  2720     1F25                     	;# 
  2721     1F26                     	;# 
  2722     1F27                     	;# 
  2723     1F28                     	;# 
  2724     1F29                     	;# 
  2725     1F2A                     	;# 
  2726     1F2B                     	;# 
  2727     1F2C                     	;# 
  2728     1F2D                     	;# 
  2729     1F2E                     	;# 
  2730     1F2F                     	;# 
  2731     1F30                     	;# 
  2732     1F31                     	;# 
  2733     1F32                     	;# 
  2734     1F38                     	;# 
  2735     1F39                     	;# 
  2736     1F3A                     	;# 
  2737     1F3B                     	;# 
  2738     1F3C                     	;# 
  2739     1F3D                     	;# 
  2740     1F3E                     	;# 
  2741     1F3F                     	;# 
  2742     1F40                     	;# 
  2743     1F41                     	;# 
  2744     1F43                     	;# 
  2745     1F44                     	;# 
  2746     1F45                     	;# 
  2747     1F46                     	;# 
  2748     1F47                     	;# 
  2749     1F48                     	;# 
  2750     1F49                     	;# 
  2751     1F4A                     	;# 
  2752     1F4B                     	;# 
  2753     1F4C                     	;# 
  2754     1F4E                     	;# 
  2755     1F4F                     	;# 
  2756     1F50                     	;# 
  2757     1F51                     	;# 
  2758     1F52                     	;# 
  2759     1F53                     	;# 
  2760     1F54                     	;# 
  2761     1F55                     	;# 
  2762     1F56                     	;# 
  2763     1F57                     	;# 
  2764     1F59                     	;# 
  2765     1F5A                     	;# 
  2766     1F5B                     	;# 
  2767     1F5C                     	;# 
  2768     1F5D                     	;# 
  2769     1F61                     	;# 
  2770     1F62                     	;# 
  2771     1F64                     	;# 
  2772     1F65                     	;# 
  2773     1F66                     	;# 
  2774     1F67                     	;# 
  2775     1F68                     	;# 
  2776     1F69                     	;# 
  2777     1F6A                     	;# 
  2778     1F6B                     	;# 
  2779     1F6C                     	;# 
  2780     1F6D                     	;# 
  2781     1FE4                     	;# 
  2782     1FE5                     	;# 
  2783     1FE6                     	;# 
  2784     1FE7                     	;# 
  2785     1FE8                     	;# 
  2786     1FE9                     	;# 
  2787     1FEA                     	;# 
  2788     1FEB                     	;# 
  2789     1FED                     	;# 
  2790     1FEE                     	;# 
  2791     1FEF                     	;# 
  2792                           
  2793                           	psect	idataBANK0
  2794     05E2                     __pidataBANK0:
  2795                           
  2796                           ;initializer for main@F12212
  2797     05E2  3472               	retlw	114
  2798     05E3  3420               	retlw	32
  2799     05E4  3459               	retlw	89
  2800     05E5  3420               	retlw	32
  2801     05E6  3441               	retlw	65
  2802     05E7  3420               	retlw	32
  2803     05E8  346E               	retlw	110
  2804     05E9  3420               	retlw	32
  2805     05EA  3426               	retlw	38
  2806     05EB  3420               	retlw	32
  2807     05EC  344B               	retlw	75
  2808     05ED  3420               	retlw	32
  2809     05EE  3461               	retlw	97
  2810     05EF  3420               	retlw	32
  2811     05F0  344C               	retlw	76
  2812                           
  2813                           ;initializer for Horz_Goto_XY@F12209
  2814     05F1  3421               	retlw	33
  2815     05F2  3400               	retlw	0
  2816     05F3  3400               	retlw	0
  2817     05F4  3422               	retlw	34
  2818     05F5  3400               	retlw	0
  2819     05F6  3403               	retlw	3
  2820                           
  2821                           ;initializer for _wrap
  2822     05F7  3401               	retlw	1
  2823                           
  2824                           	psect	stringtext1
  2825     0800                     __pstringtext1:
  2826     0800                     _Font:
  2827     0800  3400               	retlw	0
  2828     0801  3400               	retlw	0
  2829     0802  3400               	retlw	0
  2830     0803  3400               	retlw	0
  2831     0804  3400               	retlw	0
  2832     0805  3400               	retlw	0
  2833     0806  3400               	retlw	0
  2834     0807  342F               	retlw	47
  2835     0808  3400               	retlw	0
  2836     0809  3400               	retlw	0
  2837     080A  3400               	retlw	0
  2838     080B  3407               	retlw	7
  2839     080C  3400               	retlw	0
  2840     080D  3407               	retlw	7
  2841     080E  3400               	retlw	0
  2842     080F  3414               	retlw	20
  2843     0810  347F               	retlw	127
  2844     0811  3414               	retlw	20
  2845     0812  347F               	retlw	127
  2846     0813  3414               	retlw	20
  2847     0814  3424               	retlw	36
  2848     0815  342A               	retlw	42
  2849     0816  347F               	retlw	127
  2850     0817  342A               	retlw	42
  2851     0818  3412               	retlw	18
  2852     0819  3423               	retlw	35
  2853     081A  3413               	retlw	19
  2854     081B  3408               	retlw	8
  2855     081C  3464               	retlw	100
  2856     081D  3462               	retlw	98
  2857     081E  3436               	retlw	54
  2858     081F  3449               	retlw	73
  2859     0820  3455               	retlw	85
  2860     0821  3422               	retlw	34
  2861     0822  3450               	retlw	80
  2862     0823  3400               	retlw	0
  2863     0824  3405               	retlw	5
  2864     0825  3403               	retlw	3
  2865     0826  3400               	retlw	0
  2866     0827  3400               	retlw	0
  2867     0828  3400               	retlw	0
  2868     0829  341C               	retlw	28
  2869     082A  3422               	retlw	34
  2870     082B  3441               	retlw	65
  2871     082C  3400               	retlw	0
  2872     082D  3400               	retlw	0
  2873     082E  3441               	retlw	65
  2874     082F  3422               	retlw	34
  2875     0830  341C               	retlw	28
  2876     0831  3400               	retlw	0
  2877     0832  3414               	retlw	20
  2878     0833  3408               	retlw	8
  2879     0834  343E               	retlw	62
  2880     0835  3408               	retlw	8
  2881     0836  3414               	retlw	20
  2882     0837  3408               	retlw	8
  2883     0838  3408               	retlw	8
  2884     0839  343E               	retlw	62
  2885     083A  3408               	retlw	8
  2886     083B  3408               	retlw	8
  2887     083C  3400               	retlw	0
  2888     083D  3400               	retlw	0
  2889     083E  34A0               	retlw	160
  2890     083F  3460               	retlw	96
  2891     0840  3400               	retlw	0
  2892     0841  3408               	retlw	8
  2893     0842  3408               	retlw	8
  2894     0843  3408               	retlw	8
  2895     0844  3408               	retlw	8
  2896     0845  3408               	retlw	8
  2897     0846  3400               	retlw	0
  2898     0847  3460               	retlw	96
  2899     0848  3460               	retlw	96
  2900     0849  3400               	retlw	0
  2901     084A  3400               	retlw	0
  2902     084B  3420               	retlw	32
  2903     084C  3410               	retlw	16
  2904     084D  3408               	retlw	8
  2905     084E  3404               	retlw	4
  2906     084F  3402               	retlw	2
  2907     0850  343E               	retlw	62
  2908     0851  3451               	retlw	81
  2909     0852  3449               	retlw	73
  2910     0853  3445               	retlw	69
  2911     0854  343E               	retlw	62
  2912     0855  3400               	retlw	0
  2913     0856  3442               	retlw	66
  2914     0857  347F               	retlw	127
  2915     0858  3440               	retlw	64
  2916     0859  3400               	retlw	0
  2917     085A  3442               	retlw	66
  2918     085B  3461               	retlw	97
  2919     085C  3451               	retlw	81
  2920     085D  3449               	retlw	73
  2921     085E  3446               	retlw	70
  2922     085F  3421               	retlw	33
  2923     0860  3441               	retlw	65
  2924     0861  3445               	retlw	69
  2925     0862  344B               	retlw	75
  2926     0863  3431               	retlw	49
  2927     0864  3418               	retlw	24
  2928     0865  3414               	retlw	20
  2929     0866  3412               	retlw	18
  2930     0867  347F               	retlw	127
  2931     0868  3410               	retlw	16
  2932     0869  3427               	retlw	39
  2933     086A  3445               	retlw	69
  2934     086B  3445               	retlw	69
  2935     086C  3445               	retlw	69
  2936     086D  3439               	retlw	57
  2937     086E  343C               	retlw	60
  2938     086F  344A               	retlw	74
  2939     0870  3449               	retlw	73
  2940     0871  3449               	retlw	73
  2941     0872  3430               	retlw	48
  2942     0873  3401               	retlw	1
  2943     0874  3471               	retlw	113
  2944     0875  3409               	retlw	9
  2945     0876  3405               	retlw	5
  2946     0877  3403               	retlw	3
  2947     0878  3436               	retlw	54
  2948     0879  3449               	retlw	73
  2949     087A  3449               	retlw	73
  2950     087B  3449               	retlw	73
  2951     087C  3436               	retlw	54
  2952     087D  3406               	retlw	6
  2953     087E  3449               	retlw	73
  2954     087F  3449               	retlw	73
  2955     0880  3429               	retlw	41
  2956     0881  341E               	retlw	30
  2957     0882  3400               	retlw	0
  2958     0883  3436               	retlw	54
  2959     0884  3436               	retlw	54
  2960     0885  3400               	retlw	0
  2961     0886  3400               	retlw	0
  2962     0887  3400               	retlw	0
  2963     0888  3456               	retlw	86
  2964     0889  3436               	retlw	54
  2965     088A  3400               	retlw	0
  2966     088B  3400               	retlw	0
  2967     088C  3408               	retlw	8
  2968     088D  3414               	retlw	20
  2969     088E  3422               	retlw	34
  2970     088F  3441               	retlw	65
  2971     0890  3400               	retlw	0
  2972     0891  3414               	retlw	20
  2973     0892  3414               	retlw	20
  2974     0893  3414               	retlw	20
  2975     0894  3414               	retlw	20
  2976     0895  3414               	retlw	20
  2977     0896  3400               	retlw	0
  2978     0897  3441               	retlw	65
  2979     0898  3422               	retlw	34
  2980     0899  3414               	retlw	20
  2981     089A  3408               	retlw	8
  2982     089B  3402               	retlw	2
  2983     089C  3401               	retlw	1
  2984     089D  3451               	retlw	81
  2985     089E  3409               	retlw	9
  2986     089F  3406               	retlw	6
  2987     08A0  3432               	retlw	50
  2988     08A1  3449               	retlw	73
  2989     08A2  3459               	retlw	89
  2990     08A3  3451               	retlw	81
  2991     08A4  343E               	retlw	62
  2992     08A5  347C               	retlw	124
  2993     08A6  3412               	retlw	18
  2994     08A7  3411               	retlw	17
  2995     08A8  3412               	retlw	18
  2996     08A9  347C               	retlw	124
  2997     08AA  347F               	retlw	127
  2998     08AB  3449               	retlw	73
  2999     08AC  3449               	retlw	73
  3000     08AD  3449               	retlw	73
  3001     08AE  3436               	retlw	54
  3002     08AF  343E               	retlw	62
  3003     08B0  3441               	retlw	65
  3004     08B1  3441               	retlw	65
  3005     08B2  3441               	retlw	65
  3006     08B3  3422               	retlw	34
  3007     08B4  347F               	retlw	127
  3008     08B5  3441               	retlw	65
  3009     08B6  3441               	retlw	65
  3010     08B7  3422               	retlw	34
  3011     08B8  341C               	retlw	28
  3012     08B9  347F               	retlw	127
  3013     08BA  3449               	retlw	73
  3014     08BB  3449               	retlw	73
  3015     08BC  3449               	retlw	73
  3016     08BD  3441               	retlw	65
  3017     08BE  347F               	retlw	127
  3018     08BF  3409               	retlw	9
  3019     08C0  3409               	retlw	9
  3020     08C1  3409               	retlw	9
  3021     08C2  3401               	retlw	1
  3022     08C3  343E               	retlw	62
  3023     08C4  3441               	retlw	65
  3024     08C5  3449               	retlw	73
  3025     08C6  3449               	retlw	73
  3026     08C7  347A               	retlw	122
  3027     08C8  347F               	retlw	127
  3028     08C9  3408               	retlw	8
  3029     08CA  3408               	retlw	8
  3030     08CB  3408               	retlw	8
  3031     08CC  347F               	retlw	127
  3032     08CD  3400               	retlw	0
  3033     08CE  3441               	retlw	65
  3034     08CF  347F               	retlw	127
  3035     08D0  3441               	retlw	65
  3036     08D1  3400               	retlw	0
  3037     08D2  3420               	retlw	32
  3038     08D3  3440               	retlw	64
  3039     08D4  3441               	retlw	65
  3040     08D5  343F               	retlw	63
  3041     08D6  3401               	retlw	1
  3042     08D7  347F               	retlw	127
  3043     08D8  3408               	retlw	8
  3044     08D9  3414               	retlw	20
  3045     08DA  3422               	retlw	34
  3046     08DB  3441               	retlw	65
  3047     08DC  347F               	retlw	127
  3048     08DD  3440               	retlw	64
  3049     08DE  3440               	retlw	64
  3050     08DF  3440               	retlw	64
  3051     08E0  3440               	retlw	64
  3052     08E1  347F               	retlw	127
  3053     08E2  3402               	retlw	2
  3054     08E3  340C               	retlw	12
  3055     08E4  3402               	retlw	2
  3056     08E5  347F               	retlw	127
  3057     08E6  347F               	retlw	127
  3058     08E7  3404               	retlw	4
  3059     08E8  3408               	retlw	8
  3060     08E9  3410               	retlw	16
  3061     08EA  347F               	retlw	127
  3062     08EB  343E               	retlw	62
  3063     08EC  3441               	retlw	65
  3064     08ED  3441               	retlw	65
  3065     08EE  3441               	retlw	65
  3066     08EF  343E               	retlw	62
  3067     08F0  347F               	retlw	127
  3068     08F1  3409               	retlw	9
  3069     08F2  3409               	retlw	9
  3070     08F3  3409               	retlw	9
  3071     08F4  3406               	retlw	6
  3072     08F5  343E               	retlw	62
  3073     08F6  3441               	retlw	65
  3074     08F7  3451               	retlw	81
  3075     08F8  3421               	retlw	33
  3076     08F9  345E               	retlw	94
  3077     08FA  347F               	retlw	127
  3078     08FB  3409               	retlw	9
  3079     08FC  3419               	retlw	25
  3080     08FD  3429               	retlw	41
  3081     08FE  3446               	retlw	70
  3082     08FF  3446               	retlw	70
  3083     0900  3449               	retlw	73
  3084     0901  3449               	retlw	73
  3085     0902  3449               	retlw	73
  3086     0903  3431               	retlw	49
  3087     0904  3401               	retlw	1
  3088     0905  3401               	retlw	1
  3089     0906  347F               	retlw	127
  3090     0907  3401               	retlw	1
  3091     0908  3401               	retlw	1
  3092     0909  343F               	retlw	63
  3093     090A  3440               	retlw	64
  3094     090B  3440               	retlw	64
  3095     090C  3440               	retlw	64
  3096     090D  343F               	retlw	63
  3097     090E  341F               	retlw	31
  3098     090F  3420               	retlw	32
  3099     0910  3440               	retlw	64
  3100     0911  3420               	retlw	32
  3101     0912  341F               	retlw	31
  3102     0913  343F               	retlw	63
  3103     0914  3440               	retlw	64
  3104     0915  3438               	retlw	56
  3105     0916  3440               	retlw	64
  3106     0917  343F               	retlw	63
  3107     0918  3463               	retlw	99
  3108     0919  3414               	retlw	20
  3109     091A  3408               	retlw	8
  3110     091B  3414               	retlw	20
  3111     091C  3463               	retlw	99
  3112     091D  3407               	retlw	7
  3113     091E  3408               	retlw	8
  3114     091F  3470               	retlw	112
  3115     0920  3408               	retlw	8
  3116     0921  3407               	retlw	7
  3117     0922  3461               	retlw	97
  3118     0923  3451               	retlw	81
  3119     0924  3449               	retlw	73
  3120     0925  3445               	retlw	69
  3121     0926  3443               	retlw	67
  3122     0927  3400               	retlw	0
  3123     0928  347F               	retlw	127
  3124     0929  3441               	retlw	65
  3125     092A  3441               	retlw	65
  3126     092B  3400               	retlw	0
  3127     092C  3455               	retlw	85
  3128     092D  342A               	retlw	42
  3129     092E  3455               	retlw	85
  3130     092F  342A               	retlw	42
  3131     0930  3455               	retlw	85
  3132     0931  3400               	retlw	0
  3133     0932  3441               	retlw	65
  3134     0933  3441               	retlw	65
  3135     0934  347F               	retlw	127
  3136     0935  3400               	retlw	0
  3137     0936  3404               	retlw	4
  3138     0937  3402               	retlw	2
  3139     0938  3401               	retlw	1
  3140     0939  3402               	retlw	2
  3141     093A  3404               	retlw	4
  3142     093B  3440               	retlw	64
  3143     093C  3440               	retlw	64
  3144     093D  3440               	retlw	64
  3145     093E  3440               	retlw	64
  3146     093F  3440               	retlw	64
  3147     0940  3400               	retlw	0
  3148     0941  3401               	retlw	1
  3149     0942  3402               	retlw	2
  3150     0943  3404               	retlw	4
  3151     0944  3400               	retlw	0
  3152     0945  3420               	retlw	32
  3153     0946  3454               	retlw	84
  3154     0947  3454               	retlw	84
  3155     0948  3454               	retlw	84
  3156     0949  3478               	retlw	120
  3157     094A  347F               	retlw	127
  3158     094B  3448               	retlw	72
  3159     094C  3444               	retlw	68
  3160     094D  3444               	retlw	68
  3161     094E  3438               	retlw	56
  3162     094F  3438               	retlw	56
  3163     0950  3444               	retlw	68
  3164     0951  3444               	retlw	68
  3165     0952  3444               	retlw	68
  3166     0953  3420               	retlw	32
  3167     0954  3438               	retlw	56
  3168     0955  3444               	retlw	68
  3169     0956  3444               	retlw	68
  3170     0957  3448               	retlw	72
  3171     0958  347F               	retlw	127
  3172     0959  3438               	retlw	56
  3173     095A  3454               	retlw	84
  3174     095B  3454               	retlw	84
  3175     095C  3454               	retlw	84
  3176     095D  3418               	retlw	24
  3177     095E  3408               	retlw	8
  3178     095F  347E               	retlw	126
  3179     0960  3409               	retlw	9
  3180     0961  3401               	retlw	1
  3181     0962  3402               	retlw	2
  3182     0963  3418               	retlw	24
  3183     0964  34A4               	retlw	164
  3184     0965  34A4               	retlw	164
  3185     0966  34A4               	retlw	164
  3186     0967  347C               	retlw	124
  3187     0968  347F               	retlw	127
  3188     0969  3408               	retlw	8
  3189     096A  3404               	retlw	4
  3190     096B  3404               	retlw	4
  3191     096C  3478               	retlw	120
  3192     096D  3400               	retlw	0
  3193     096E  3444               	retlw	68
  3194     096F  347D               	retlw	125
  3195     0970  3440               	retlw	64
  3196     0971  3400               	retlw	0
  3197     0972  3440               	retlw	64
  3198     0973  3480               	retlw	128
  3199     0974  3484               	retlw	132
  3200     0975  347D               	retlw	125
  3201     0976  3400               	retlw	0
  3202     0977  347F               	retlw	127
  3203     0978  3410               	retlw	16
  3204     0979  3428               	retlw	40
  3205     097A  3444               	retlw	68
  3206     097B  3400               	retlw	0
  3207     097C  3400               	retlw	0
  3208     097D  3441               	retlw	65
  3209     097E  347F               	retlw	127
  3210     097F  3440               	retlw	64
  3211     0980  3400               	retlw	0
  3212     0981  347C               	retlw	124
  3213     0982  3404               	retlw	4
  3214     0983  3418               	retlw	24
  3215     0984  3404               	retlw	4
  3216     0985  3478               	retlw	120
  3217     0986  347C               	retlw	124
  3218     0987  3408               	retlw	8
  3219     0988  3404               	retlw	4
  3220     0989  3404               	retlw	4
  3221     098A  3478               	retlw	120
  3222     098B  3438               	retlw	56
  3223     098C  3444               	retlw	68
  3224     098D  3444               	retlw	68
  3225     098E  3444               	retlw	68
  3226     098F  3438               	retlw	56
  3227     0990  34FC               	retlw	252
  3228     0991  3424               	retlw	36
  3229     0992  3424               	retlw	36
  3230     0993  3424               	retlw	36
  3231     0994  3418               	retlw	24
  3232     0995  3418               	retlw	24
  3233     0996  3424               	retlw	36
  3234     0997  3424               	retlw	36
  3235     0998  3418               	retlw	24
  3236     0999  34FC               	retlw	252
  3237     099A  347C               	retlw	124
  3238     099B  3408               	retlw	8
  3239     099C  3404               	retlw	4
  3240     099D  3404               	retlw	4
  3241     099E  3408               	retlw	8
  3242     099F  3448               	retlw	72
  3243     09A0  3454               	retlw	84
  3244     09A1  3454               	retlw	84
  3245     09A2  3454               	retlw	84
  3246     09A3  3420               	retlw	32
  3247     09A4  3404               	retlw	4
  3248     09A5  343F               	retlw	63
  3249     09A6  3444               	retlw	68
  3250     09A7  3440               	retlw	64
  3251     09A8  3420               	retlw	32
  3252     09A9  343C               	retlw	60
  3253     09AA  3440               	retlw	64
  3254     09AB  3440               	retlw	64
  3255     09AC  3420               	retlw	32
  3256     09AD  347C               	retlw	124
  3257     09AE  341C               	retlw	28
  3258     09AF  3420               	retlw	32
  3259     09B0  3440               	retlw	64
  3260     09B1  3420               	retlw	32
  3261     09B2  341C               	retlw	28
  3262     09B3  343C               	retlw	60
  3263     09B4  3440               	retlw	64
  3264     09B5  3430               	retlw	48
  3265     09B6  3440               	retlw	64
  3266     09B7  343C               	retlw	60
  3267     09B8  3444               	retlw	68
  3268     09B9  3428               	retlw	40
  3269     09BA  3410               	retlw	16
  3270     09BB  3428               	retlw	40
  3271     09BC  3444               	retlw	68
  3272     09BD  341C               	retlw	28
  3273     09BE  34A0               	retlw	160
  3274     09BF  34A0               	retlw	160
  3275     09C0  34A0               	retlw	160
  3276     09C1  347C               	retlw	124
  3277     09C2  3444               	retlw	68
  3278     09C3  3464               	retlw	100
  3279     09C4  3454               	retlw	84
  3280     09C5  344C               	retlw	76
  3281     09C6  3444               	retlw	68
  3282     09C7  3400               	retlw	0
  3283     09C8  3408               	retlw	8
  3284     09C9  3477               	retlw	119
  3285     09CA  3400               	retlw	0
  3286     09CB  3400               	retlw	0
  3287     09CC  3400               	retlw	0
  3288     09CD  347F               	retlw	127
  3289     09CE  3400               	retlw	0
  3290     09CF  3400               	retlw	0
  3291     09D0  3400               	retlw	0
  3292     09D1  3400               	retlw	0
  3293     09D2  3477               	retlw	119
  3294     09D3  3408               	retlw	8
  3295     09D4  3400               	retlw	0
  3296     09D5  3400               	retlw	0
  3297     09D6  3410               	retlw	16
  3298     09D7  3408               	retlw	8
  3299     09D8  3410               	retlw	16
  3300     09D9  3408               	retlw	8
  3301     09DA  3400               	retlw	0
  3302     09DB                     __end_of_Font:
  3303                           
  3304                           	psect	stringtext2
  3305     09DB                     __pstringtext2:
  3306     09DB                     _horz_init:
  3307     09DB  3400               	retlw	0
  3308     09DC  34AE               	retlw	174
  3309     09DD  34D5               	retlw	213
  3310     09DE  3490               	retlw	144
  3311     09DF  34A8               	retlw	168
  3312     09E0  341F               	retlw	31
  3313     09E1  34D3               	retlw	211
  3314     09E2  3400               	retlw	0
  3315     09E3  3440               	retlw	64
  3316     09E4  348D               	retlw	141
  3317     09E5  3414               	retlw	20
  3318     09E6  34A0               	retlw	160
  3319     09E7  34DA               	retlw	218
  3320     09E8  34C0               	retlw	192
  3321     09E9  3481               	retlw	129
  3322     09EA  347F               	retlw	127
  3323     09EB  34D9               	retlw	217
  3324     09EC  34F1               	retlw	241
  3325     09ED  34A4               	retlw	164
  3326     09EE  34A6               	retlw	166
  3327     09EF  3420               	retlw	32
  3328     09F0  3400               	retlw	0
  3329     09F1  34AF               	retlw	175
  3330     09F2                     __end_of_horz_init:
  3331                           
  3332                           	psect	stringtext3
  3333     09F2                     __pstringtext3:
  3334     09F2                     _entire_screen:
  3335     09F2  3421               	retlw	33
  3336     09F3  3400               	retlw	0
  3337     09F4  347F               	retlw	127
  3338     09F5  3422               	retlw	34
  3339     09F6  3400               	retlw	0
  3340     09F7  3403               	retlw	3
  3341     09F8                     __end_of_entire_screen:
  3342     000F                     _PORTD	set	15
  3343     000E                     _PORTC	set	14
  3344     000D                     _PORTB	set	13
  3345     000C                     _PORTA	set	12
  3346     0014                     _TRISD	set	20
  3347     0013                     _TRISC	set	19
  3348     0012                     _TRISB	set	18
  3349     0011                     _TRISA	set	17
  3350     0015                     _TRISE	set	21
  3351     0018                     _LATC	set	24
  3352     0017                     _LATB	set	23
  3353     0016                     _LATA	set	22
  3354     0019                     _LATD	set	25
  3355     001A                     _LATE	set	26
  3356     0191                     _SSP1CON2	set	401
  3357     018F                     _SSP1STAT	set	399
  3358     018C                     _SSP1BUF	set	396
  3359     0191                     _SSP1CON2bits	set	401
  3360     0190                     _SSP1CON1bits	set	400
  3361     018D                     _SSP1ADD	set	397
  3362     018F                     _SSP1STATbits	set	399
  3363     070F                     _PIR3bits	set	1807
  3364     0892                     _OSCTUNE	set	2194
  3365     0893                     _OSCFRQ	set	2195
  3366     0891                     _OSCEN	set	2193
  3367     088F                     _OSCCON3	set	2191
  3368     088D                     _OSCCON1	set	2189
  3369     1EC5                     _SSP1CLKPPS	set	7877
  3370     1EC6                     _SSP1DATPPS	set	7878
  3371     1F38                     _ANSELA	set	7992
  3372     1F64                     _ANSELE	set	8036
  3373     1F43                     _ANSELB	set	8003
  3374     1F4E                     _ANSELC	set	8014
  3375     1F59                     _ANSELD	set	8025
  3376     1F23                     _RC3PPS	set	7971
  3377     1F24                     _RC4PPS	set	7972
  3378     FA74                     _ANSC4	set	64116
  3379     FA73                     _ANSC3	set	64115
  3380                           
  3381                           	psect	cinit
  3382     07EE                     start_initialization:	
  3383                           ; #config settings
  3384                           
  3385     07EE                     __initialization:
  3386                           
  3387                           ; Initialize objects allocated to BANK0
  3388     07EE  30E2               	movlw	low __pidataBANK0
  3389     07EF  0084               	movwf	4
  3390     07F0  3085               	movlw	(high __pidataBANK0)| (0+128)
  3391     07F1  0085               	movwf	5
  3392     07F2  303E               	movlw	low __pdataBANK0
  3393     07F3  0086               	movwf	6
  3394     07F4  3000               	movlw	high __pdataBANK0
  3395     07F5  0087               	movwf	7
  3396     07F6  3016               	movlw	22
  3397     07F7  3185  258D  3187   	fcall	init_ram
  3398                           
  3399                           ; Clear objects allocated to COMMON
  3400     07FA  01FD               	clrf	__pbssCOMMON& (0+127)
  3401                           
  3402                           ; Clear objects allocated to BANK0
  3403     07FB  01D4               	clrf	__pbssBANK0& (0+127)
  3404     07FC  01D5               	clrf	(__pbssBANK0+1)& (0+127)
  3405     07FD                     end_of_initialization:	
  3406                           ;End of C runtime variable initialization code
  3407                           
  3408     07FD                     __end_of__initialization:
  3409     07FD  0140               	movlb	0
  3410     07FE  3186  2EBC         	ljmp	_main	;jump to C main() function
  3411                           
  3412                           	psect	bssCOMMON
  3413     007D                     __pbssCOMMON:
  3414     007D                     __vccstate:
  3415     007D                     	ds	1
  3416                           
  3417                           	psect	bssBANK0
  3418     0054                     __pbssBANK0:
  3419     0054                     _y_pos:
  3420     0054                     	ds	1
  3421     0055                     _x_pos:
  3422     0055                     	ds	1
  3423                           
  3424                           	psect	dataBANK0
  3425     003E                     __pdataBANK0:
  3426     003E                     main@F12212:
  3427     003E                     	ds	15
  3428     004D                     Horz_Goto_XY@F12209:
  3429     004D                     	ds	6
  3430     0053                     _wrap:
  3431     0053                     	ds	1
  3432                           
  3433                           	psect	inittext
  3434     058D                     init_ram:
  3435     058D  00FE               	movwf	btemp
  3436     058E                     initloop:
  3437     058E  0012               	moviw fsr0++
  3438     058F  001E               	movwi fsr1++
  3439     0590  0BFE               	decfsz	btemp,f
  3440     0591  2D8E               	goto	initloop
  3441     0592  3400               	retlw	0
  3442                           
  3443                           	psect	cstackCOMMON
  3444     0070                     __pcstackCOMMON:
  3445     0070                     ?_I2C_Init:
  3446     0070                     ??_I2C_Init:	
  3447                           ; 1 bytes @ 0x0
  3448                           
  3449     0070                     ?_SSD1306_Init:	
  3450                           ; 1 bytes @ 0x0
  3451                           
  3452     0070                     ?_horizontal_fill_screen:	
  3453                           ; 1 bytes @ 0x0
  3454                           
  3455     0070                     ?_SSD1306_Data:	
  3456                           ; 1 bytes @ 0x0
  3457                           
  3458     0070                     ?_put_char:	
  3459                           ; 1 bytes @ 0x0
  3460                           
  3461     0070                     ?_I2C_Idle_Check:	
  3462                           ; 1 bytes @ 0x0
  3463                           
  3464     0070                     ??_I2C_Idle_Check:	
  3465                           ; 1 bytes @ 0x0
  3466                           
  3467     0070                     ?_main:	
  3468                           ; 1 bytes @ 0x0
  3469                           
  3470     0070                     ?_I2C_Start:	
  3471                           ; 1 bytes @ 0x0
  3472                           
  3473     0070                     ??_I2C_Start:	
  3474                           ; 1 bytes @ 0x0
  3475                           
  3476     0070                     ?_I2C_Stop:	
  3477                           ; 1 bytes @ 0x0
  3478                           
  3479     0070                     ??_I2C_Stop:	
  3480                           ; 1 bytes @ 0x0
  3481                           
  3482     0070                     ?_I2C_Write:	
  3483                           ; 1 bytes @ 0x0
  3484                           
  3485     0070                     ??_I2C_Write:	
  3486                           ; 1 bytes @ 0x0
  3487                           
  3488     0070                     ?___bmul:	
  3489                           ; 1 bytes @ 0x0
  3490                           
  3491     0070                     I2C_Write@I2C_data:	
  3492                           ; 1 bytes @ 0x0
  3493                           
  3494     0070                     ___bmul@multiplicand:	
  3495                           ; 1 bytes @ 0x0
  3496                           
  3497                           
  3498                           ; 1 bytes @ 0x0
  3499     0070                     	ds	1
  3500     0071                     ??_SSD1306_Data:
  3501     0071                     ?_SSD1306_Command:	
  3502                           ; 1 bytes @ 0x1
  3503                           
  3504     0071                     ??___bmul:	
  3505                           ; 1 bytes @ 0x1
  3506                           
  3507     0071                     SSD1306_Command@array:	
  3508                           ; 1 bytes @ 0x1
  3509                           
  3510                           
  3511                           ; 2 bytes @ 0x1
  3512     0071                     	ds	1
  3513     0072                     ___bmul@product:
  3514                           
  3515                           ; 1 bytes @ 0x2
  3516     0072                     	ds	1
  3517     0073                     SSD1306_Command@size_array:
  3518     0073                     ___bmul@multiplier:	
  3519                           ; 1 bytes @ 0x3
  3520                           
  3521                           
  3522                           ; 1 bytes @ 0x3
  3523     0073                     	ds	1
  3524     0074                     ??_put_char:
  3525     0074                     ??_SSD1306_Command:	
  3526                           ; 1 bytes @ 0x4
  3527                           
  3528                           
  3529                           ; 1 bytes @ 0x4
  3530     0074                     	ds	1
  3531     0075                     put_char@j:
  3532     0075                     SSD1306_Command@i:	
  3533                           ; 1 bytes @ 0x5
  3534                           
  3535                           
  3536                           ; 2 bytes @ 0x5
  3537     0075                     	ds	1
  3538     0076                     put_char@limit:
  3539                           
  3540                           ; 1 bytes @ 0x6
  3541     0076                     	ds	1
  3542     0077                     ??_SSD1306_Init:
  3543     0077                     ??_horizontal_fill_screen:	
  3544                           ; 1 bytes @ 0x7
  3545                           
  3546     0077                     ?_Horz_Goto_XY:	
  3547                           ; 1 bytes @ 0x7
  3548                           
  3549     0077                     Horz_Goto_XY@end_column:	
  3550                           ; 1 bytes @ 0x7
  3551                           
  3552     0077                     put_char@a:	
  3553                           ; 1 bytes @ 0x7
  3554                           
  3555                           
  3556                           ; 1 bytes @ 0x7
  3557     0077                     	ds	1
  3558     0078                     horizontal_fill_screen@value:
  3559     0078                     Horz_Goto_XY@start_row:	
  3560                           ; 1 bytes @ 0x8
  3561                           
  3562     0078                     put_char@font:	
  3563                           ; 1 bytes @ 0x8
  3564                           
  3565                           
  3566                           ; 1 bytes @ 0x8
  3567     0078                     	ds	1
  3568     0079                     horizontal_fill_screen@j:
  3569     0079                     Horz_Goto_XY@end_row:	
  3570                           ; 1 bytes @ 0x9
  3571                           
  3572     0079                     put_char@b:	
  3573                           ; 1 bytes @ 0x9
  3574                           
  3575                           
  3576                           ; 1 bytes @ 0x9
  3577     0079                     	ds	1
  3578     007A                     ??_Horz_Goto_XY:
  3579     007A                     horizontal_fill_screen@i:	
  3580                           ; 1 bytes @ 0xA
  3581                           
  3582                           
  3583                           ; 1 bytes @ 0xA
  3584     007A                     	ds	1
  3585     007B                     ??_main:
  3586                           
  3587                           ; 1 bytes @ 0xB
  3588     007B                     	ds	2
  3589                           
  3590                           	psect	cstackBANK0
  3591     0020                     __pcstackBANK0:
  3592     0020                     Horz_Goto_XY@goto_xy:
  3593                           
  3594                           ; 6 bytes @ 0x0
  3595     0020                     	ds	6
  3596     0026                     Horz_Goto_XY@start_column:
  3597                           
  3598                           ; 1 bytes @ 0x6
  3599     0026                     	ds	1
  3600     0027                     main@phrase:
  3601                           
  3602                           ; 15 bytes @ 0x7
  3603     0027                     	ds	15
  3604     0036                     main@i:
  3605                           
  3606                           ; 2 bytes @ 0x16
  3607     0036                     	ds	2
  3608     0038                     main@i_78:
  3609                           
  3610                           ; 2 bytes @ 0x18
  3611     0038                     	ds	2
  3612     003A                     main@i_79:
  3613                           
  3614                           ; 2 bytes @ 0x1A
  3615     003A                     	ds	2
  3616     003C                     main@i_80:
  3617                           
  3618                           ; 2 bytes @ 0x1C
  3619     003C                     	ds	2
  3620                           
  3621                           	psect	maintext
  3622     06BC                     __pmaintext:	
  3623 ;;
  3624 ;;Main: autosize = 0, tempsize = 2, incstack = 0, save=0
  3625 ;;
  3626 ;; *************** function _main *****************
  3627 ;; Defined at:
  3628 ;;		line 70 in file "main.c"
  3629 ;; Parameters:    Size  Location     Type
  3630 ;;		None
  3631 ;; Auto vars:     Size  Location     Type
  3632 ;;  i               2   28[BANK0 ] int 
  3633 ;;  i               2   26[BANK0 ] int 
  3634 ;;  i               2   24[BANK0 ] int 
  3635 ;;  i               2   22[BANK0 ] int 
  3636 ;;  phrase         15    7[BANK0 ] unsigned char [15]
  3637 ;; Return value:  Size  Location     Type
  3638 ;;                  1    wreg      void 
  3639 ;; Registers used:
  3640 ;;		wreg, fsr0l, fsr0h, fsr1l, fsr1h, status,2, status,0, pclath, cstack
  3641 ;; Tracked objects:
  3642 ;;		On entry : B3F/0
  3643 ;;		On exit  : 0/0
  3644 ;;		Unchanged: 0/0
  3645 ;; Data sizes:     COMMON   BANK0   BANK1   BANK2   BANK3   BANK4   BANK5   BANK6   BANK7   BANK8   BANK9  BANK10  BANK1
      +1  BANK12  BANK13  BANK14  BANK15  BANK16  BANK17  BANK18  BANK19  BANK20  BANK21  BANK22  BANK23  BANK24  BANK25  BANK2
      +6  BANK27  BANK28  BANK29  BANK30  BANK31  BANK32  BANK33  BANK34  BANK35  BANK36  BANK37  BANK38  BANK39  BANK40  BANK4
      +1  BANK42  BANK43  BANK44  BANK45  BANK46  BANK47  BANK48  BANK49  BANK50
  3646 ;;      Params:         0       0       0       0       0       0       0       0       0       0       0       0       
      +0       0       0       0       0       0       0       0       0       0       0       0       0       0       0       
      +0       0       0       0       0       0       0       0       0       0       0       0       0       0       0       
      +0       0       0       0       0       0       0       0       0       0
  3647 ;;      Locals:         0      23       0       0       0       0       0       0       0       0       0       0       
      +0       0       0       0       0       0       0       0       0       0       0       0       0       0       0       
      +0       0       0       0       0       0       0       0       0       0       0       0       0       0       0       
      +0       0       0       0       0       0       0       0       0       0
  3648 ;;      Temps:          2       0       0       0       0       0       0       0       0       0       0       0       
      +0       0       0       0       0       0       0       0       0       0       0       0       0       0       0       
      +0       0       0       0       0       0       0       0       0       0       0       0       0       0       0       
      +0       0       0       0       0       0       0       0       0       0
  3649 ;;      Totals:         2      23       0       0       0       0       0       0       0       0       0       0       
      +0       0       0       0       0       0       0       0       0       0       0       0       0       0       0       
      +0       0       0       0       0       0       0       0       0       0       0       0       0       0       0       
      +0       0       0       0       0       0       0       0       0       0
  3650 ;;Total ram usage:       25 bytes
  3651 ;; Hardware stack levels required when called: 4
  3652 ;; This function calls:
  3653 ;;		_Horz_Goto_XY
  3654 ;;		_I2C_Init
  3655 ;;		_SSD1306_Data
  3656 ;;		_SSD1306_Init
  3657 ;;		_horizontal_fill_screen
  3658 ;;		_put_char
  3659 ;; This function is called by:
  3660 ;;		Startup code after reset
  3661 ;; This function uses a non-reentrant model
  3662 ;;
  3663                           
  3664     06BC                     _main:	
  3665                           ;psect for function _main
  3666                           
  3667     06BC                     l1294:	
  3668                           ;incstack = 0
  3669                           ; Regs used in _main: [wreg-fsr1h+status,2+status,0+pclath+cstack]
  3670                           
  3671                           
  3672                           ;main.c: 72: }
  3673     06BC  303E               	movlw	low main@F12212
  3674     06BD  0086               	movwf	6
  3675     06BE  3000               	movlw	high main@F12212
  3676     06BF  0087               	movwf	7
  3677     06C0  3027               	movlw	low main@phrase
  3678     06C1  0084               	movwf	4
  3679     06C2  3000               	movlw	high main@phrase
  3680     06C3  0085               	movwf	5
  3681     06C4  300F               	movlw	15
  3682     06C5  00FB               	movwf	??_main
  3683     06C6                     u310:
  3684     06C6  0016               	moviw fsr1++
  3685     06C7  001A               	movwi fsr0++
  3686     06C8  0BFB               	decfsz	??_main,f
  3687     06C9  2EC6               	goto	u310
  3688     06CA                     l1296:
  3689     06CA  3060               	movlw	96
  3690     06CB  0151               	movlb	17	; select bank17
  3691     06CC  008D               	movwf	13	;volatile
  3692     06CD                     l1298:
  3693     06CD  018F               	clrf	15	;volatile
  3694     06CE                     l1300:
  3695     06CE  0191               	clrf	17	;volatile
  3696     06CF                     l1302:
  3697     06CF  3005               	movlw	5
  3698     06D0  0093               	movwf	19	;volatile
  3699     06D1                     l1304:
  3700     06D1  0192               	clrf	18	;volatile
  3701     06D2                     l1306:
  3702     06D2  3185  25F8  3186   	fcall	_I2C_Init
  3703     06D5                     l1308:
  3704     06D5  3185  259D  3186   	fcall	_SSD1306_Init
  3705     06D8                     l1310:
  3706     06D8  3055               	movlw	85
  3707     06D9  3186  265F  3186   	fcall	_horizontal_fill_screen
  3708     06DC                     l1312:
  3709     06DC  3015               	movlw	21
  3710     06DD  00FC               	movwf	??_main+1
  3711     06DE  304B               	movlw	75
  3712     06DF  00FB               	movwf	??_main
  3713     06E0  30BE               	movlw	190
  3714     06E1                     u387:
  3715     06E1  0B89               	decfsz	9,f
  3716     06E2  2EE1               	goto	u387
  3717     06E3  0BFB               	decfsz	??_main,f
  3718     06E4  2EE1               	goto	u387
  3719     06E5  0BFC               	decfsz	??_main+1,f
  3720     06E6  2EE1               	goto	u387
  3721     06E7  3200               	nop2
  3722     06E8                     l1314:
  3723     06E8  3000               	movlw	0
  3724     06E9  3186  265F  3186   	fcall	_horizontal_fill_screen
  3725     06EC                     l1316:
  3726     06EC  3079               	movlw	121
  3727     06ED  00F7               	movwf	Horz_Goto_XY@end_column
  3728     06EE  01F8               	clrf	Horz_Goto_XY@start_row
  3729     06EF  01F9               	clrf	Horz_Goto_XY@end_row
  3730     06F0  0AF9               	incf	Horz_Goto_XY@end_row,f
  3731     06F1  3034               	movlw	52
  3732     06F2  3186  2610  3186   	fcall	_Horz_Goto_XY
  3733     06F5                     l1318:
  3734     06F5  3185  25B3  3186   	fcall	_SSD1306_Data
  3735     06F8                     l1320:
  3736     06F8  0140               	movlb	0	; select bank0
  3737     06F9  01B6               	clrf	main@i
  3738     06FA  01B7               	clrf	main@i+1
  3739     06FB                     l1326:
  3740     06FB  0140               	movlb	0	; select bank0
  3741     06FC  0836               	movf	main@i,w
  3742     06FD  3E27               	addlw	(low (main@phrase| 0))& (0+255)
  3743     06FE  3186  268C  3186   	fcall	_put_char
  3744     0701                     l1328:
  3745     0701  3001               	movlw	1
  3746     0702  0140               	movlb	0	; select bank0
  3747     0703  07B6               	addwf	main@i,f
  3748     0704  3000               	movlw	0
  3749     0705  3DB7               	addwfc	main@i+1,f
  3750     0706                     l1330:
  3751     0706  0837               	movf	main@i+1,w
  3752     0707  3A80               	xorlw	128
  3753     0708  00FB               	movwf	??_main
  3754     0709  3080               	movlw	128
  3755     070A  027B               	subwf	??_main,w
  3756     070B  1D03               	skipz
  3757     070C  2F0F               	goto	u325
  3758     070D  300B               	movlw	11
  3759     070E  0236               	subwf	main@i,w
  3760     070F                     u325:
  3761     070F  1C03               	skipc
  3762     0710  2F12               	goto	u321
  3763     0711  2F13               	goto	u320
  3764     0712                     u321:
  3765     0712  2EFB               	goto	l1326
  3766     0713                     u320:
  3767     0713                     l1332:
  3768     0713  3029               	movlw	41
  3769     0714  00FC               	movwf	??_main+1
  3770     0715  3096               	movlw	150
  3771     0716  00FB               	movwf	??_main
  3772     0717  307F               	movlw	127
  3773     0718                     u397:
  3774     0718  0B89               	decfsz	9,f
  3775     0719  2F18               	goto	u397
  3776     071A  0BFB               	decfsz	??_main,f
  3777     071B  2F18               	goto	u397
  3778     071C  0BFC               	decfsz	??_main+1,f
  3779     071D  2F18               	goto	u397
  3780     071E  0000               	nop
  3781     071F                     l1334:
  3782     071F  3055               	movlw	85
  3783     0720  3186  265F  3186   	fcall	_horizontal_fill_screen
  3784     0723                     l1336:
  3785     0723  3015               	movlw	21
  3786     0724  00FC               	movwf	??_main+1
  3787     0725  304B               	movlw	75
  3788     0726  00FB               	movwf	??_main
  3789     0727  30BE               	movlw	190
  3790     0728                     u407:
  3791     0728  0B89               	decfsz	9,f
  3792     0729  2F28               	goto	u407
  3793     072A  0BFB               	decfsz	??_main,f
  3794     072B  2F28               	goto	u407
  3795     072C  0BFC               	decfsz	??_main+1,f
  3796     072D  2F28               	goto	u407
  3797     072E  3200               	nop2
  3798     072F  3000               	movlw	0
  3799     0730  3186  265F  3186   	fcall	_horizontal_fill_screen
  3800     0733                     l1338:
  3801     0733  3046               	movlw	70
  3802     0734  00F7               	movwf	Horz_Goto_XY@end_column
  3803     0735  3002               	movlw	2
  3804     0736  00F8               	movwf	Horz_Goto_XY@start_row
  3805     0737  3003               	movlw	3
  3806     0738  00F9               	movwf	Horz_Goto_XY@end_row
  3807     0739  3001               	movlw	1
  3808     073A  3186  2610  3186   	fcall	_Horz_Goto_XY
  3809     073D                     l1340:
  3810     073D  3185  25B3  3186   	fcall	_SSD1306_Data
  3811     0740                     l1342:
  3812     0740  0140               	movlb	0	; select bank0
  3813     0741  01B8               	clrf	main@i_78
  3814     0742  01B9               	clrf	main@i_78+1
  3815     0743                     l1348:
  3816     0743  0140               	movlb	0	; select bank0
  3817     0744  0838               	movf	main@i_78,w
  3818     0745  3E27               	addlw	(low (main@phrase| 0))& (0+255)
  3819     0746  3186  268C  3186   	fcall	_put_char
  3820     0749                     l1350:
  3821     0749  3001               	movlw	1
  3822     074A  0140               	movlb	0	; select bank0
  3823     074B  07B8               	addwf	main@i_78,f
  3824     074C  3000               	movlw	0
  3825     074D  3DB9               	addwfc	main@i_78+1,f
  3826     074E                     l1352:
  3827     074E  0839               	movf	main@i_78+1,w
  3828     074F  3A80               	xorlw	128
  3829     0750  00FB               	movwf	??_main
  3830     0751  3080               	movlw	128
  3831     0752  027B               	subwf	??_main,w
  3832     0753  1D03               	skipz
  3833     0754  2F57               	goto	u335
  3834     0755  300B               	movlw	11
  3835     0756  0238               	subwf	main@i_78,w
  3836     0757                     u335:
  3837     0757  1C03               	skipc
  3838     0758  2F5A               	goto	u331
  3839     0759  2F5B               	goto	u330
  3840     075A                     u331:
  3841     075A  2F43               	goto	l1348
  3842     075B                     u330:
  3843     075B                     l1354:
  3844     075B  3029               	movlw	41
  3845     075C  00FC               	movwf	??_main+1
  3846     075D  3096               	movlw	150
  3847     075E  00FB               	movwf	??_main
  3848     075F  307F               	movlw	127
  3849     0760                     u417:
  3850     0760  0B89               	decfsz	9,f
  3851     0761  2F60               	goto	u417
  3852     0762  0BFB               	decfsz	??_main,f
  3853     0763  2F60               	goto	u417
  3854     0764  0BFC               	decfsz	??_main+1,f
  3855     0765  2F60               	goto	u417
  3856     0766  0000               	nop
  3857     0767                     l1356:
  3858     0767  3000               	movlw	0
  3859     0768  3186  265F  3186   	fcall	_horizontal_fill_screen
  3860     076B                     l1358:
  3861     076B  307D               	movlw	125
  3862     076C  00F7               	movwf	Horz_Goto_XY@end_column
  3863     076D  01F8               	clrf	Horz_Goto_XY@start_row
  3864     076E  0AF8               	incf	Horz_Goto_XY@start_row,f
  3865     076F  3002               	movlw	2
  3866     0770  00F9               	movwf	Horz_Goto_XY@end_row
  3867     0771  3050               	movlw	80
  3868     0772  3186  2610  3186   	fcall	_Horz_Goto_XY
  3869     0775                     l1360:
  3870     0775  3185  25B3  3186   	fcall	_SSD1306_Data
  3871     0778                     l1362:
  3872     0778  0140               	movlb	0	; select bank0
  3873     0779  01BA               	clrf	main@i_79
  3874     077A  01BB               	clrf	main@i_79+1
  3875     077B                     l1368:
  3876     077B  0140               	movlb	0	; select bank0
  3877     077C  083A               	movf	main@i_79,w
  3878     077D  3E27               	addlw	(low (main@phrase| 0))& (0+255)
  3879     077E  3186  268C  3186   	fcall	_put_char
  3880     0781                     l1370:
  3881     0781  3001               	movlw	1
  3882     0782  0140               	movlb	0	; select bank0
  3883     0783  07BA               	addwf	main@i_79,f
  3884     0784  3000               	movlw	0
  3885     0785  3DBB               	addwfc	main@i_79+1,f
  3886     0786                     l1372:
  3887     0786  083B               	movf	main@i_79+1,w
  3888     0787  3A80               	xorlw	128
  3889     0788  00FB               	movwf	??_main
  3890     0789  3080               	movlw	128
  3891     078A  027B               	subwf	??_main,w
  3892     078B  1D03               	skipz
  3893     078C  2F8F               	goto	u345
  3894     078D  300B               	movlw	11
  3895     078E  023A               	subwf	main@i_79,w
  3896     078F                     u345:
  3897     078F  1C03               	skipc
  3898     0790  2F92               	goto	u341
  3899     0791  2F93               	goto	u340
  3900     0792                     u341:
  3901     0792  2F7B               	goto	l1368
  3902     0793                     u340:
  3903     0793                     l1374:
  3904     0793  3029               	movlw	41
  3905     0794  00FC               	movwf	??_main+1
  3906     0795  3096               	movlw	150
  3907     0796  00FB               	movwf	??_main
  3908     0797  307F               	movlw	127
  3909     0798                     u427:
  3910     0798  0B89               	decfsz	9,f
  3911     0799  2F98               	goto	u427
  3912     079A  0BFB               	decfsz	??_main,f
  3913     079B  2F98               	goto	u427
  3914     079C  0BFC               	decfsz	??_main+1,f
  3915     079D  2F98               	goto	u427
  3916     079E  0000               	nop
  3917     079F                     l1376:
  3918     079F  3005               	movlw	5
  3919     07A0  3186  265F  3186   	fcall	_horizontal_fill_screen
  3920     07A3                     l1378:
  3921     07A3  3015               	movlw	21
  3922     07A4  00FC               	movwf	??_main+1
  3923     07A5  304B               	movlw	75
  3924     07A6  00FB               	movwf	??_main
  3925     07A7  30BE               	movlw	190
  3926     07A8                     u437:
  3927     07A8  0B89               	decfsz	9,f
  3928     07A9  2FA8               	goto	u437
  3929     07AA  0BFB               	decfsz	??_main,f
  3930     07AB  2FA8               	goto	u437
  3931     07AC  0BFC               	decfsz	??_main+1,f
  3932     07AD  2FA8               	goto	u437
  3933     07AE  3200               	nop2
  3934     07AF  3000               	movlw	0
  3935     07B0  3186  265F  3186   	fcall	_horizontal_fill_screen
  3936     07B3                     l1380:
  3937     07B3  305A               	movlw	90
  3938     07B4  00F7               	movwf	Horz_Goto_XY@end_column
  3939     07B5  3003               	movlw	3
  3940     07B6  00F8               	movwf	Horz_Goto_XY@start_row
  3941     07B7  3003               	movlw	3
  3942     07B8  00F9               	movwf	Horz_Goto_XY@end_row
  3943     07B9  302D               	movlw	45
  3944     07BA  3186  2610  3186   	fcall	_Horz_Goto_XY
  3945     07BD                     l1382:
  3946     07BD  3185  25B3  3186   	fcall	_SSD1306_Data
  3947     07C0                     l1384:
  3948     07C0  0140               	movlb	0	; select bank0
  3949     07C1  01BC               	clrf	main@i_80
  3950     07C2  01BD               	clrf	main@i_80+1
  3951     07C3                     l1390:
  3952     07C3  0140               	movlb	0	; select bank0
  3953     07C4  083C               	movf	main@i_80,w
  3954     07C5  3E27               	addlw	(low (main@phrase| 0))& (0+255)
  3955     07C6  3186  268C  3186   	fcall	_put_char
  3956     07C9                     l1392:
  3957     07C9  3001               	movlw	1
  3958     07CA  0140               	movlb	0	; select bank0
  3959     07CB  07BC               	addwf	main@i_80,f
  3960     07CC  3000               	movlw	0
  3961     07CD  3DBD               	addwfc	main@i_80+1,f
  3962     07CE                     l1394:
  3963     07CE  083D               	movf	main@i_80+1,w
  3964     07CF  3A80               	xorlw	128
  3965     07D0  00FB               	movwf	??_main
  3966     07D1  3080               	movlw	128
  3967     07D2  027B               	subwf	??_main,w
  3968     07D3  1D03               	skipz
  3969     07D4  2FD7               	goto	u355
  3970     07D5  300B               	movlw	11
  3971     07D6  023C               	subwf	main@i_80,w
  3972     07D7                     u355:
  3973     07D7  1C03               	skipc
  3974     07D8  2FDA               	goto	u351
  3975     07D9  2FDB               	goto	u350
  3976     07DA                     u351:
  3977     07DA  2FC3               	goto	l1390
  3978     07DB                     u350:
  3979     07DB                     l1396:
  3980     07DB  3029               	movlw	41
  3981     07DC  00FC               	movwf	??_main+1
  3982     07DD  3096               	movlw	150
  3983     07DE  00FB               	movwf	??_main
  3984     07DF  307F               	movlw	127
  3985     07E0                     u447:
  3986     07E0  0B89               	decfsz	9,f
  3987     07E1  2FE0               	goto	u447
  3988     07E2  0BFB               	decfsz	??_main,f
  3989     07E3  2FE0               	goto	u447
  3990     07E4  0BFC               	decfsz	??_main+1,f
  3991     07E5  2FE0               	goto	u447
  3992     07E6  0000               	nop
  3993     07E7                     l1398:
  3994     07E7  3055               	movlw	85
  3995     07E8  3186  265F  3186   	fcall	_horizontal_fill_screen
  3996     07EB  2ED8               	goto	l1310
  3997     07EC  3180  2802         	ljmp	start
  3998     07EE                     __end_of_main:
  3999                           
  4000                           	psect	text1
  4001     068C                     __ptext1:	
  4002 ;; *************** function _put_char *****************
  4003 ;; Defined at:
  4004 ;;		line 233 in file "../PIC16F18877/in_progress/SSD1306_drivers.c"
  4005 ;; Parameters:    Size  Location     Type
  4006 ;;  font            1    wreg     PTR unsigned char 
  4007 ;;		 -> main@phrase(15), 
  4008 ;; Auto vars:     Size  Location     Type
  4009 ;;  font            1    8[COMMON] PTR unsigned char 
  4010 ;;		 -> main@phrase(15), 
  4011 ;;  b               1    9[COMMON] unsigned char 
  4012 ;;  a               1    7[COMMON] unsigned char 
  4013 ;;  limit           1    6[COMMON] unsigned char 
  4014 ;;  j               1    5[COMMON] unsigned char 
  4015 ;; Return value:  Size  Location     Type
  4016 ;;                  1    wreg      void 
  4017 ;; Registers used:
  4018 ;;		wreg, fsr0l, fsr0h, fsr1l, fsr1h, status,2, status,0, pclath, cstack
  4019 ;; Tracked objects:
  4020 ;;		On entry : 0/0
  4021 ;;		On exit  : 0/0
  4022 ;;		Unchanged: 0/0
  4023 ;; Data sizes:     COMMON   BANK0   BANK1   BANK2   BANK3   BANK4   BANK5   BANK6   BANK7   BANK8   BANK9  BANK10  BANK1
      +1  BANK12  BANK13  BANK14  BANK15  BANK16  BANK17  BANK18  BANK19  BANK20  BANK21  BANK22  BANK23  BANK24  BANK25  BANK2
      +6  BANK27  BANK28  BANK29  BANK30  BANK31  BANK32  BANK33  BANK34  BANK35  BANK36  BANK37  BANK38  BANK39  BANK40  BANK4
      +1  BANK42  BANK43  BANK44  BANK45  BANK46  BANK47  BANK48  BANK49  BANK50
  4024 ;;      Params:         0       0       0       0       0       0       0       0       0       0       0       0       
      +0       0       0       0       0       0       0       0       0       0       0       0       0       0       0       
      +0       0       0       0       0       0       0       0       0       0       0       0       0       0       0       
      +0       0       0       0       0       0       0       0       0       0
  4025 ;;      Locals:         5       0       0       0       0       0       0       0       0       0       0       0       
      +0       0       0       0       0       0       0       0       0       0       0       0       0       0       0       
      +0       0       0       0       0       0       0       0       0       0       0       0       0       0       0       
      +0       0       0       0       0       0       0       0       0       0
  4026 ;;      Temps:          1       0       0       0       0       0       0       0       0       0       0       0       
      +0       0       0       0       0       0       0       0       0       0       0       0       0       0       0       
      +0       0       0       0       0       0       0       0       0       0       0       0       0       0       0       
      +0       0       0       0       0       0       0       0       0       0
  4027 ;;      Totals:         6       0       0       0       0       0       0       0       0       0       0       0       
      +0       0       0       0       0       0       0       0       0       0       0       0       0       0       0       
      +0       0       0       0       0       0       0       0       0       0       0       0       0       0       0       
      +0       0       0       0       0       0       0       0       0       0
  4028 ;;Total ram usage:        6 bytes
  4029 ;; Hardware stack levels used: 1
  4030 ;; Hardware stack levels required when called: 3
  4031 ;; This function calls:
  4032 ;;		_I2C_Stop
  4033 ;;		_I2C_Write
  4034 ;;		_SSD1306_Data
  4035 ;;		___bmul
  4036 ;; This function is called by:
  4037 ;;		_main
  4038 ;; This function uses a non-reentrant model
  4039 ;;
  4040                           
  4041     068C                     _put_char:	
  4042                           ;psect for function _put_char
  4043                           
  4044                           
  4045                           ;incstack = 0
  4046                           ; Regs used in _put_char: [wreg-fsr1h+status,2+status,0+pclath+cstack]
  4047                           ;put_char@font stored from wreg
  4048     068C  00F8               	movwf	put_char@font
  4049     068D                     l1272:
  4050                           
  4051                           ;../PIC16F18877/in_progress/SSD1306_drivers.c: 234:    uint8_t j = *font;
  4052     068D  0878               	movf	put_char@font,w
  4053     068E  0086               	movwf	6
  4054     068F  0187               	clrf	7
  4055     0690  0801               	movf	1,w
  4056     0691  00F5               	movwf	put_char@j
  4057     0692                     l1274:
  4058     0692                     l1276:
  4059     0692                     l1278:
  4060                           
  4061                           ;../PIC16F18877/in_progress/SSD1306_drivers.c: 239:   a = (j-32);
  4062     0692  0875               	movf	put_char@j,w
  4063     0693  3EE0               	addlw	224
  4064     0694  00F7               	movwf	put_char@a
  4065     0695                     l1280:
  4066                           
  4067                           ;../PIC16F18877/in_progress/SSD1306_drivers.c: 240:   b = ( a * 5);
  4068     0695  3005               	movlw	5
  4069     0696  00F0               	movwf	___bmul@multiplicand
  4070     0697  0877               	movf	put_char@a,w
  4071     0698  3185  25CD  3186   	fcall	___bmul
  4072     069B  00F9               	movwf	put_char@b
  4073     069C                     l1282:
  4074                           
  4075                           ;../PIC16F18877/in_progress/SSD1306_drivers.c: 241:   uint8_t limit = (b + 5);
  4076     069C  0879               	movf	put_char@b,w
  4077     069D  3E05               	addlw	5
  4078     069E  00F6               	movwf	put_char@limit
  4079                           
  4080                           ;../PIC16F18877/in_progress/SSD1306_drivers.c: 242:   for( ;b < limit; b++){
  4081     069F  2EB2               	goto	l1290
  4082     06A0                     l1284:
  4083                           
  4084                           ;../PIC16F18877/in_progress/SSD1306_drivers.c: 243:     SSD1306_Data();
  4085     06A0  3185  25B3  3186   	fcall	_SSD1306_Data
  4086     06A3                     l1286:
  4087                           
  4088                           ;../PIC16F18877/in_progress/SSD1306_drivers.c: 244:     I2C_Write(Font[b]);
  4089     06A3  0879               	movf	put_char@b,w
  4090     06A4  3E00               	addlw	low (_Font| (0+32768))
  4091     06A5  0084               	movwf	4
  4092     06A6  3088               	movlw	high (_Font| (0+32768))
  4093     06A7  1803               	skipnc
  4094     06A8  3E01               	addlw	1
  4095     06A9  0085               	movwf	5
  4096     06AA  0800               	movf	0,w	;code access
  4097     06AB  3185  25A7  3186   	fcall	_I2C_Write
  4098     06AE                     l1288:
  4099                           
  4100                           ;../PIC16F18877/in_progress/SSD1306_drivers.c: 245:      }
  4101     06AE  3001               	movlw	1
  4102     06AF  00F4               	movwf	??_put_char
  4103     06B0  0874               	movf	??_put_char,w
  4104     06B1  07F9               	addwf	put_char@b,f
  4105     06B2                     l1290:
  4106     06B2  0876               	movf	put_char@limit,w
  4107     06B3  0279               	subwf	put_char@b,w
  4108     06B4  1C03               	skipc
  4109     06B5  2EB7               	goto	u301
  4110     06B6  2EB8               	goto	u300
  4111     06B7                     u301:
  4112     06B7  2EA0               	goto	l1284
  4113     06B8                     u300:
  4114     06B8                     l1292:
  4115                           
  4116                           ;../PIC16F18877/in_progress/SSD1306_drivers.c: 246:   I2C_Stop();
  4117     06B8  3185  2587  3186   	fcall	_I2C_Stop
  4118     06BB                     l213:
  4119     06BB  0008               	return
  4120     06BC                     __end_of_put_char:
  4121                           
  4122                           	psect	text2
  4123     05CD                     __ptext2:	
  4124 ;; *************** function ___bmul *****************
  4125 ;; Defined at:
  4126 ;;		line 4 in file "/opt/microchip/xc8/v2.40/pic/sources/c99/common/Umul8.c"
  4127 ;; Parameters:    Size  Location     Type
  4128 ;;  multiplier      1    wreg     unsigned char 
  4129 ;;  multiplicand    1    0[COMMON] unsigned char 
  4130 ;; Auto vars:     Size  Location     Type
  4131 ;;  multiplier      1    3[COMMON] unsigned char 
  4132 ;;  product         1    2[COMMON] unsigned char 
  4133 ;; Return value:  Size  Location     Type
  4134 ;;                  1    wreg      unsigned char 
  4135 ;; Registers used:
  4136 ;;		wreg, status,2, status,0
  4137 ;; Tracked objects:
  4138 ;;		On entry : 0/0
  4139 ;;		On exit  : 0/0
  4140 ;;		Unchanged: 0/0
  4141 ;; Data sizes:     COMMON   BANK0   BANK1   BANK2   BANK3   BANK4   BANK5   BANK6   BANK7   BANK8   BANK9  BANK10  BANK1
      +1  BANK12  BANK13  BANK14  BANK15  BANK16  BANK17  BANK18  BANK19  BANK20  BANK21  BANK22  BANK23  BANK24  BANK25  BANK2
      +6  BANK27  BANK28  BANK29  BANK30  BANK31  BANK32  BANK33  BANK34  BANK35  BANK36  BANK37  BANK38  BANK39  BANK40  BANK4
      +1  BANK42  BANK43  BANK44  BANK45  BANK46  BANK47  BANK48  BANK49  BANK50
  4142 ;;      Params:         1       0       0       0       0       0       0       0       0       0       0       0       
      +0       0       0       0       0       0       0       0       0       0       0       0       0       0       0       
      +0       0       0       0       0       0       0       0       0       0       0       0       0       0       0       
      +0       0       0       0       0       0       0       0       0       0
  4143 ;;      Locals:         2       0       0       0       0       0       0       0       0       0       0       0       
      +0       0       0       0       0       0       0       0       0       0       0       0       0       0       0       
      +0       0       0       0       0       0       0       0       0       0       0       0       0       0       0       
      +0       0       0       0       0       0       0       0       0       0
  4144 ;;      Temps:          1       0       0       0       0       0       0       0       0       0       0       0       
      +0       0       0       0       0       0       0       0       0       0       0       0       0       0       0       
      +0       0       0       0       0       0       0       0       0       0       0       0       0       0       0       
      +0       0       0       0       0       0       0       0       0       0
  4145 ;;      Totals:         4       0       0       0       0       0       0       0       0       0       0       0       
      +0       0       0       0       0       0       0       0       0       0       0       0       0       0       0       
      +0       0       0       0       0       0       0       0       0       0       0       0       0       0       0       
      +0       0       0       0       0       0       0       0       0       0
  4146 ;;Total ram usage:        4 bytes
  4147 ;; Hardware stack levels used: 1
  4148 ;; This function calls:
  4149 ;;		Nothing
  4150 ;; This function is called by:
  4151 ;;		_put_char
  4152 ;; This function uses a non-reentrant model
  4153 ;;
  4154                           
  4155     05CD                     ___bmul:	
  4156                           ;psect for function ___bmul
  4157                           
  4158                           
  4159                           ;incstack = 0
  4160                           ; Regs used in ___bmul: [wreg+status,2+status,0]
  4161                           ;___bmul@multiplier stored from wreg
  4162     05CD  00F3               	movwf	___bmul@multiplier
  4163     05CE                     l1200:
  4164     05CE  01F2               	clrf	___bmul@product
  4165     05CF                     l1202:
  4166     05CF  1C73               	btfss	___bmul@multiplier,0
  4167     05D0  2DD2               	goto	u251
  4168     05D1  2DD3               	goto	u250
  4169     05D2                     u251:
  4170     05D2  2DD7               	goto	l1206
  4171     05D3                     u250:
  4172     05D3                     l1204:
  4173     05D3  0870               	movf	___bmul@multiplicand,w
  4174     05D4  00F1               	movwf	??___bmul
  4175     05D5  0871               	movf	??___bmul,w
  4176     05D6  07F2               	addwf	___bmul@product,f
  4177     05D7                     l1206:
  4178     05D7  1003               	clrc
  4179     05D8  0DF0               	rlf	___bmul@multiplicand,f
  4180     05D9                     l1208:
  4181     05D9  1003               	clrc
  4182     05DA  0CF3               	rrf	___bmul@multiplier,f
  4183     05DB  0873               	movf	___bmul@multiplier,w
  4184     05DC  1D03               	btfss	3,2
  4185     05DD  2DDF               	goto	u261
  4186     05DE  2DE0               	goto	u260
  4187     05DF                     u261:
  4188     05DF  2DCF               	goto	l1202
  4189     05E0                     u260:
  4190     05E0                     l1210:
  4191     05E0  0872               	movf	___bmul@product,w
  4192     05E1                     l432:
  4193     05E1  0008               	return
  4194     05E2                     __end_of___bmul:
  4195                           
  4196                           	psect	text3
  4197     065F                     __ptext3:	
  4198 ;; *************** function _horizontal_fill_screen *****************
  4199 ;; Defined at:
  4200 ;;		line 71 in file "../PIC16F18877/in_progress/SSD1306_drivers.c"
  4201 ;; Parameters:    Size  Location     Type
  4202 ;;  value           1    wreg     unsigned char 
  4203 ;; Auto vars:     Size  Location     Type
  4204 ;;  value           1    8[COMMON] unsigned char 
  4205 ;;  i               1   10[COMMON] unsigned char 
  4206 ;;  j               1    9[COMMON] unsigned char 
  4207 ;; Return value:  Size  Location     Type
  4208 ;;                  1    wreg      void 
  4209 ;; Registers used:
  4210 ;;		wreg, fsr0l, fsr0h, status,2, status,0, pclath, cstack
  4211 ;; Tracked objects:
  4212 ;;		On entry : 0/0
  4213 ;;		On exit  : 0/0
  4214 ;;		Unchanged: 0/0
  4215 ;; Data sizes:     COMMON   BANK0   BANK1   BANK2   BANK3   BANK4   BANK5   BANK6   BANK7   BANK8   BANK9  BANK10  BANK1
      +1  BANK12  BANK13  BANK14  BANK15  BANK16  BANK17  BANK18  BANK19  BANK20  BANK21  BANK22  BANK23  BANK24  BANK25  BANK2
      +6  BANK27  BANK28  BANK29  BANK30  BANK31  BANK32  BANK33  BANK34  BANK35  BANK36  BANK37  BANK38  BANK39  BANK40  BANK4
      +1  BANK42  BANK43  BANK44  BANK45  BANK46  BANK47  BANK48  BANK49  BANK50
  4216 ;;      Params:         0       0       0       0       0       0       0       0       0       0       0       0       
      +0       0       0       0       0       0       0       0       0       0       0       0       0       0       0       
      +0       0       0       0       0       0       0       0       0       0       0       0       0       0       0       
      +0       0       0       0       0       0       0       0       0       0
  4217 ;;      Locals:         3       0       0       0       0       0       0       0       0       0       0       0       
      +0       0       0       0       0       0       0       0       0       0       0       0       0       0       0       
      +0       0       0       0       0       0       0       0       0       0       0       0       0       0       0       
      +0       0       0       0       0       0       0       0       0       0
  4218 ;;      Temps:          1       0       0       0       0       0       0       0       0       0       0       0       
      +0       0       0       0       0       0       0       0       0       0       0       0       0       0       0       
      +0       0       0       0       0       0       0       0       0       0       0       0       0       0       0       
      +0       0       0       0       0       0       0       0       0       0
  4219 ;;      Totals:         4       0       0       0       0       0       0       0       0       0       0       0       
      +0       0       0       0       0       0       0       0       0       0       0       0       0       0       0       
      +0       0       0       0       0       0       0       0       0       0       0       0       0       0       0       
      +0       0       0       0       0       0       0       0       0       0
  4220 ;;Total ram usage:        4 bytes
  4221 ;; Hardware stack levels used: 1
  4222 ;; Hardware stack levels required when called: 3
  4223 ;; This function calls:
  4224 ;;		_I2C_Stop
  4225 ;;		_I2C_Write
  4226 ;;		_SSD1306_Command
  4227 ;;		_SSD1306_Data
  4228 ;; This function is called by:
  4229 ;;		_main
  4230 ;; This function uses a non-reentrant model
  4231 ;;
  4232                           
  4233     065F                     _horizontal_fill_screen:	
  4234                           ;psect for function _horizontal_fill_screen
  4235                           
  4236                           
  4237                           ;incstack = 0
  4238                           ; Regs used in _horizontal_fill_screen: [wreg-fsr0h+status,2+status,0+pclath+cstack]
  4239                           ;horizontal_fill_screen@value stored from wreg
  4240     065F  00F8               	movwf	horizontal_fill_screen@value
  4241     0660                     l1230:
  4242                           
  4243                           ;../PIC16F18877/in_progress/SSD1306_drivers.c: 73:   SSD1306_Command(entire_screen, size
      +                          of(entire_screen));
  4244     0660  30F2               	movlw	low (_entire_screen| (0+32768))
  4245     0661  00F1               	movwf	SSD1306_Command@array
  4246     0662  3089               	movlw	high (_entire_screen| (0+32768))
  4247     0663  00F2               	movwf	SSD1306_Command@array+1
  4248     0664  3006               	movlw	6
  4249     0665  00F3               	movwf	SSD1306_Command@size_array
  4250     0666  3186  2632  3186   	fcall	_SSD1306_Command
  4251     0669                     l1232:
  4252                           
  4253                           ;../PIC16F18877/in_progress/SSD1306_drivers.c: 75:   SSD1306_Data();
  4254     0669  3185  25B3  3186   	fcall	_SSD1306_Data
  4255     066C                     l1234:
  4256                           
  4257                           ;../PIC16F18877/in_progress/SSD1306_drivers.c: 77:   for( uint8_t i = 0, j = 0; j < 5; j
      +                          ++ ){
  4258     066C  01FA               	clrf	horizontal_fill_screen@i
  4259     066D                     l1236:
  4260     066D  01F9               	clrf	horizontal_fill_screen@j
  4261     066E  2E6F               	goto	l1246
  4262     066F                     l1242:
  4263     066F                     l1246:
  4264                           
  4265                           ;../PIC16F18877/in_progress/SSD1306_drivers.c: 79:         I2C_Write(value);
  4266     066F  0878               	movf	horizontal_fill_screen@value,w
  4267     0670  3185  25A7  3186   	fcall	_I2C_Write
  4268     0673                     l1248:
  4269                           
  4270                           ;../PIC16F18877/in_progress/SSD1306_drivers.c: 80:     }
  4271     0673  3001               	movlw	1
  4272     0674  00F7               	movwf	??_horizontal_fill_screen
  4273     0675  0877               	movf	??_horizontal_fill_screen,w
  4274     0676  07FA               	addwf	horizontal_fill_screen@i,f
  4275     0677                     l1250:
  4276     0677  307F               	movlw	127
  4277     0678  027A               	subwf	horizontal_fill_screen@i,w
  4278     0679  1C03               	skipc
  4279     067A  2E7C               	goto	u271
  4280     067B  2E7D               	goto	u270
  4281     067C                     u271:
  4282     067C  2E6F               	goto	l1246
  4283     067D                     u270:
  4284     067D                     l1252:
  4285                           
  4286                           ;../PIC16F18877/in_progress/SSD1306_drivers.c: 81:     i = 0;
  4287     067D  01FA               	clrf	horizontal_fill_screen@i
  4288     067E                     l1254:
  4289                           
  4290                           ;../PIC16F18877/in_progress/SSD1306_drivers.c: 82:   }
  4291     067E  3001               	movlw	1
  4292     067F  00F7               	movwf	??_horizontal_fill_screen
  4293     0680  0877               	movf	??_horizontal_fill_screen,w
  4294     0681  07F9               	addwf	horizontal_fill_screen@j,f
  4295     0682                     l1256:
  4296     0682  3005               	movlw	5
  4297     0683  0279               	subwf	horizontal_fill_screen@j,w
  4298     0684  1C03               	skipc
  4299     0685  2E87               	goto	u281
  4300     0686  2E88               	goto	u280
  4301     0687                     u281:
  4302     0687  2E6F               	goto	l1242
  4303     0688                     u280:
  4304     0688                     l1258:
  4305                           
  4306                           ;../PIC16F18877/in_progress/SSD1306_drivers.c: 84:  I2C_Stop();
  4307     0688  3185  2587  3186   	fcall	_I2C_Stop
  4308     068B                     l196:
  4309     068B  0008               	return
  4310     068C                     __end_of_horizontal_fill_screen:
  4311                           
  4312                           	psect	text4
  4313     05B3                     __ptext4:	
  4314 ;; *************** function _SSD1306_Data *****************
  4315 ;; Defined at:
  4316 ;;		line 44 in file "../PIC16F18877/in_progress/SSD1306_drivers.c"
  4317 ;; Parameters:    Size  Location     Type
  4318 ;;		None
  4319 ;; Auto vars:     Size  Location     Type
  4320 ;;		None
  4321 ;; Return value:  Size  Location     Type
  4322 ;;                  1    wreg      void 
  4323 ;; Registers used:
  4324 ;;		wreg, status,2, status,0, pclath, cstack
  4325 ;; Tracked objects:
  4326 ;;		On entry : 0/0
  4327 ;;		On exit  : 0/0
  4328 ;;		Unchanged: 0/0
  4329 ;; Data sizes:     COMMON   BANK0   BANK1   BANK2   BANK3   BANK4   BANK5   BANK6   BANK7   BANK8   BANK9  BANK10  BANK1
      +1  BANK12  BANK13  BANK14  BANK15  BANK16  BANK17  BANK18  BANK19  BANK20  BANK21  BANK22  BANK23  BANK24  BANK25  BANK2
      +6  BANK27  BANK28  BANK29  BANK30  BANK31  BANK32  BANK33  BANK34  BANK35  BANK36  BANK37  BANK38  BANK39  BANK40  BANK4
      +1  BANK42  BANK43  BANK44  BANK45  BANK46  BANK47  BANK48  BANK49  BANK50
  4330 ;;      Params:         0       0       0       0       0       0       0       0       0       0       0       0       
      +0       0       0       0       0       0       0       0       0       0       0       0       0       0       0       
      +0       0       0       0       0       0       0       0       0       0       0       0       0       0       0       
      +0       0       0       0       0       0       0       0       0       0
  4331 ;;      Locals:         0       0       0       0       0       0       0       0       0       0       0       0       
      +0       0       0       0       0       0       0       0       0       0       0       0       0       0       0       
      +0       0       0       0       0       0       0       0       0       0       0       0       0       0       0       
      +0       0       0       0       0       0       0       0       0       0
  4332 ;;      Temps:          0       0       0       0       0       0       0       0       0       0       0       0       
      +0       0       0       0       0       0       0       0       0       0       0       0       0       0       0       
      +0       0       0       0       0       0       0       0       0       0       0       0       0       0       0       
      +0       0       0       0       0       0       0       0       0       0
  4333 ;;      Totals:         0       0       0       0       0       0       0       0       0       0       0       0       
      +0       0       0       0       0       0       0       0       0       0       0       0       0       0       0       
      +0       0       0       0       0       0       0       0       0       0       0       0       0       0       0       
      +0       0       0       0       0       0       0       0       0       0
  4334 ;;Total ram usage:        0 bytes
  4335 ;; Hardware stack levels used: 1
  4336 ;; Hardware stack levels required when called: 2
  4337 ;; This function calls:
  4338 ;;		_I2C_Start
  4339 ;;		_I2C_Write
  4340 ;; This function is called by:
  4341 ;;		_main
  4342 ;;		_horizontal_fill_screen
  4343 ;;		_put_char
  4344 ;; This function uses a non-reentrant model
  4345 ;;
  4346                           
  4347     05B3                     _SSD1306_Data:	
  4348                           ;psect for function _SSD1306_Data
  4349                           
  4350     05B3                     l1186:	
  4351                           ;incstack = 0
  4352                           ; Regs used in _SSD1306_Data: [wreg+status,2+status,0+pclath+cstack]
  4353                           
  4354                           
  4355                           ;../PIC16F18877/in_progress/SSD1306_drivers.c: 46:     I2C_Start();
  4356     05B3  3185  2593  3185   	fcall	_I2C_Start
  4357                           
  4358                           ;../PIC16F18877/in_progress/SSD1306_drivers.c: 47:     I2C_Write(0x78);
  4359     05B6  3078               	movlw	120
  4360     05B7  3185  25A7  3185   	fcall	_I2C_Write
  4361                           
  4362                           ;../PIC16F18877/in_progress/SSD1306_drivers.c: 48:     I2C_Write(0x40);
  4363     05BA  3040               	movlw	64
  4364     05BB  3185  25A7  3185   	fcall	_I2C_Write
  4365     05BE                     l186:
  4366     05BE  0008               	return
  4367     05BF                     __end_of_SSD1306_Data:
  4368                           
  4369                           	psect	text5
  4370     059D                     __ptext5:	
  4371 ;; *************** function _SSD1306_Init *****************
  4372 ;; Defined at:
  4373 ;;		line 58 in file "../PIC16F18877/in_progress/SSD1306_drivers.c"
  4374 ;; Parameters:    Size  Location     Type
  4375 ;;		None
  4376 ;; Auto vars:     Size  Location     Type
  4377 ;;		None
  4378 ;; Return value:  Size  Location     Type
  4379 ;;                  1    wreg      void 
  4380 ;; Registers used:
  4381 ;;		wreg, fsr0l, fsr0h, status,2, status,0, pclath, cstack
  4382 ;; Tracked objects:
  4383 ;;		On entry : 0/0
  4384 ;;		On exit  : 0/0
  4385 ;;		Unchanged: 0/0
  4386 ;; Data sizes:     COMMON   BANK0   BANK1   BANK2   BANK3   BANK4   BANK5   BANK6   BANK7   BANK8   BANK9  BANK10  BANK1
      +1  BANK12  BANK13  BANK14  BANK15  BANK16  BANK17  BANK18  BANK19  BANK20  BANK21  BANK22  BANK23  BANK24  BANK25  BANK2
      +6  BANK27  BANK28  BANK29  BANK30  BANK31  BANK32  BANK33  BANK34  BANK35  BANK36  BANK37  BANK38  BANK39  BANK40  BANK4
      +1  BANK42  BANK43  BANK44  BANK45  BANK46  BANK47  BANK48  BANK49  BANK50
  4387 ;;      Params:         0       0       0       0       0       0       0       0       0       0       0       0       
      +0       0       0       0       0       0       0       0       0       0       0       0       0       0       0       
      +0       0       0       0       0       0       0       0       0       0       0       0       0       0       0       
      +0       0       0       0       0       0       0       0       0       0
  4388 ;;      Locals:         0       0       0       0       0       0       0       0       0       0       0       0       
      +0       0       0       0       0       0       0       0       0       0       0       0       0       0       0       
      +0       0       0       0       0       0       0       0       0       0       0       0       0       0       0       
      +0       0       0       0       0       0       0       0       0       0
  4389 ;;      Temps:          0       0       0       0       0       0       0       0       0       0       0       0       
      +0       0       0       0       0       0       0       0       0       0       0       0       0       0       0       
      +0       0       0       0       0       0       0       0       0       0       0       0       0       0       0       
      +0       0       0       0       0       0       0       0       0       0
  4390 ;;      Totals:         0       0       0       0       0       0       0       0       0       0       0       0       
      +0       0       0       0       0       0       0       0       0       0       0       0       0       0       0       
      +0       0       0       0       0       0       0       0       0       0       0       0       0       0       0       
      +0       0       0       0       0       0       0       0       0       0
  4391 ;;Total ram usage:        0 bytes
  4392 ;; Hardware stack levels used: 1
  4393 ;; Hardware stack levels required when called: 3
  4394 ;; This function calls:
  4395 ;;		_SSD1306_Command
  4396 ;; This function is called by:
  4397 ;;		_main
  4398 ;; This function uses a non-reentrant model
  4399 ;;
  4400                           
  4401     059D                     _SSD1306_Init:	
  4402                           ;psect for function _SSD1306_Init
  4403                           
  4404     059D                     l1228:	
  4405                           ;incstack = 0
  4406                           ; Regs used in _SSD1306_Init: [wreg-fsr0h+status,2+status,0+pclath+cstack]
  4407                           
  4408                           
  4409                           ;../PIC16F18877/in_progress/SSD1306_drivers.c: 60:   SSD1306_Command(horz_init, sizeof(h
      +                          orz_init));
  4410     059D  30DB               	movlw	low (_horz_init| (0+32768))
  4411     059E  00F1               	movwf	SSD1306_Command@array
  4412     059F  3089               	movlw	high (_horz_init| (0+32768))
  4413     05A0  00F2               	movwf	SSD1306_Command@array+1
  4414     05A1  3017               	movlw	23
  4415     05A2  00F3               	movwf	SSD1306_Command@size_array
  4416     05A3  3186  2632  3185   	fcall	_SSD1306_Command
  4417     05A6                     l189:
  4418     05A6  0008               	return
  4419     05A7                     __end_of_SSD1306_Init:
  4420                           
  4421                           	psect	text6
  4422     05F8                     __ptext6:	
  4423 ;; *************** function _I2C_Init *****************
  4424 ;; Defined at:
  4425 ;;		line 16 in file "../PIC16F18877/libs/i2c_drivers.c"
  4426 ;; Parameters:    Size  Location     Type
  4427 ;;		None
  4428 ;; Auto vars:     Size  Location     Type
  4429 ;;		None
  4430 ;; Return value:  Size  Location     Type
  4431 ;;                  1    wreg      void 
  4432 ;; Registers used:
  4433 ;;		wreg, status,2, status,0
  4434 ;; Tracked objects:
  4435 ;;		On entry : 0/0
  4436 ;;		On exit  : 0/0
  4437 ;;		Unchanged: 0/0
  4438 ;; Data sizes:     COMMON   BANK0   BANK1   BANK2   BANK3   BANK4   BANK5   BANK6   BANK7   BANK8   BANK9  BANK10  BANK1
      +1  BANK12  BANK13  BANK14  BANK15  BANK16  BANK17  BANK18  BANK19  BANK20  BANK21  BANK22  BANK23  BANK24  BANK25  BANK2
      +6  BANK27  BANK28  BANK29  BANK30  BANK31  BANK32  BANK33  BANK34  BANK35  BANK36  BANK37  BANK38  BANK39  BANK40  BANK4
      +1  BANK42  BANK43  BANK44  BANK45  BANK46  BANK47  BANK48  BANK49  BANK50
  4439 ;;      Params:         0       0       0       0       0       0       0       0       0       0       0       0       
      +0       0       0       0       0       0       0       0       0       0       0       0       0       0       0       
      +0       0       0       0       0       0       0       0       0       0       0       0       0       0       0       
      +0       0       0       0       0       0       0       0       0       0
  4440 ;;      Locals:         0       0       0       0       0       0       0       0       0       0       0       0       
      +0       0       0       0       0       0       0       0       0       0       0       0       0       0       0       
      +0       0       0       0       0       0       0       0       0       0       0       0       0       0       0       
      +0       0       0       0       0       0       0       0       0       0
  4441 ;;      Temps:          0       0       0       0       0       0       0       0       0       0       0       0       
      +0       0       0       0       0       0       0       0       0       0       0       0       0       0       0       
      +0       0       0       0       0       0       0       0       0       0       0       0       0       0       0       
      +0       0       0       0       0       0       0       0       0       0
  4442 ;;      Totals:         0       0       0       0       0       0       0       0       0       0       0       0       
      +0       0       0       0       0       0       0       0       0       0       0       0       0       0       0       
      +0       0       0       0       0       0       0       0       0       0       0       0       0       0       0       
      +0       0       0       0       0       0       0       0       0       0
  4443 ;;Total ram usage:        0 bytes
  4444 ;; Hardware stack levels used: 1
  4445 ;; This function calls:
  4446 ;;		Nothing
  4447 ;; This function is called by:
  4448 ;;		_main
  4449 ;; This function uses a non-reentrant model
  4450 ;;
  4451                           
  4452     05F8                     _I2C_Init:	
  4453                           ;psect for function _I2C_Init
  4454                           
  4455     05F8                     l89:	
  4456                           ;incstack = 0
  4457                           ; Regs used in _I2C_Init: [wreg+status,2+status,0]
  4458                           ;../PIC16F18877/libs/i2c_drivers.c: 18:   do { ANSC3 = 0; } while (0);
  4459                           
  4460     05F8  017E               	movlb	62	; select bank62
  4461     05F9  11CE               	bcf	78,3	;volatile
  4462     05FA                     l91:	
  4463                           ;../PIC16F18877/libs/i2c_drivers.c: 19:   do { ANSC4 = 0; } while (0);
  4464                           
  4465     05FA  124E               	bcf	78,4	;volatile
  4466     05FB                     l92:
  4467                           
  4468                           ;../PIC16F18877/libs/i2c_drivers.c: 20:   SSP1STATbits.SMP = 0;
  4469     05FB  0143               	movlb	3	; select bank3
  4470     05FC  138F               	bcf	15,7	;volatile
  4471                           
  4472                           ;../PIC16F18877/libs/i2c_drivers.c: 21:   SSP1STATbits.CKE = 0;
  4473     05FD  130F               	bcf	15,6	;volatile
  4474     05FE                     l1214:
  4475                           
  4476                           ;../PIC16F18877/libs/i2c_drivers.c: 22:   SSP1ADD = 0x09;
  4477     05FE  3009               	movlw	9
  4478     05FF  008D               	movwf	13	;volatile
  4479     0600                     l1216:
  4480                           
  4481                           ;../PIC16F18877/libs/i2c_drivers.c: 23:   SSP1CON1bits.SSPEN = 1;
  4482     0600  1690               	bsf	16,5	;volatile
  4483     0601                     l1218:
  4484                           
  4485                           ;../PIC16F18877/libs/i2c_drivers.c: 24:   SSP1CON1bits.SSPM =
  4486     0601  0810               	movf	16,w	;volatile
  4487     0602  39F0               	andlw	-16
  4488     0603  3808               	iorlw	8
  4489     0604  0090               	movwf	16	;volatile
  4490     0605                     l1220:
  4491     0605  3014               	movlw	20
  4492     0606  017D               	movlb	61	; select bank61
  4493     0607  00C6               	movwf	70	;volatile
  4494     0608                     l1222:
  4495     0608  3013               	movlw	19
  4496     0609  00C5               	movwf	69	;volatile
  4497     060A                     l1224:
  4498     060A  3015               	movlw	21
  4499     060B  017E               	movlb	62	; select bank62
  4500     060C  00A4               	movwf	36	;volatile
  4501     060D                     l1226:
  4502     060D  3014               	movlw	20
  4503     060E  00A3               	movwf	35	;volatile
  4504     060F                     l101:
  4505     060F  0008               	return
  4506     0610                     __end_of_I2C_Init:
  4507                           
  4508                           	psect	text7
  4509     0610                     __ptext7:	
  4510 ;; *************** function _Horz_Goto_XY *****************
  4511 ;; Defined at:
  4512 ;;		line 97 in file "../PIC16F18877/in_progress/SSD1306_drivers.c"
  4513 ;; Parameters:    Size  Location     Type
  4514 ;;  start_column    1    wreg     unsigned char 
  4515 ;;  end_column      1    7[COMMON] unsigned char 
  4516 ;;  start_row       1    8[COMMON] unsigned char 
  4517 ;;  end_row         1    9[COMMON] unsigned char 
  4518 ;; Auto vars:     Size  Location     Type
  4519 ;;  start_column    1    6[BANK0 ] unsigned char 
  4520 ;;  goto_xy         6    0[BANK0 ] unsigned char [6]
  4521 ;; Return value:  Size  Location     Type
  4522 ;;                  1    wreg      void 
  4523 ;; Registers used:
  4524 ;;		wreg, fsr0l, fsr0h, fsr1l, fsr1h, status,2, status,0, pclath, cstack
  4525 ;; Tracked objects:
  4526 ;;		On entry : 0/0
  4527 ;;		On exit  : 0/0
  4528 ;;		Unchanged: 0/0
  4529 ;; Data sizes:     COMMON   BANK0   BANK1   BANK2   BANK3   BANK4   BANK5   BANK6   BANK7   BANK8   BANK9  BANK10  BANK1
      +1  BANK12  BANK13  BANK14  BANK15  BANK16  BANK17  BANK18  BANK19  BANK20  BANK21  BANK22  BANK23  BANK24  BANK25  BANK2
      +6  BANK27  BANK28  BANK29  BANK30  BANK31  BANK32  BANK33  BANK34  BANK35  BANK36  BANK37  BANK38  BANK39  BANK40  BANK4
      +1  BANK42  BANK43  BANK44  BANK45  BANK46  BANK47  BANK48  BANK49  BANK50
  4530 ;;      Params:         3       0       0       0       0       0       0       0       0       0       0       0       
      +0       0       0       0       0       0       0       0       0       0       0       0       0       0       0       
      +0       0       0       0       0       0       0       0       0       0       0       0       0       0       0       
      +0       0       0       0       0       0       0       0       0       0
  4531 ;;      Locals:         0       7       0       0       0       0       0       0       0       0       0       0       
      +0       0       0       0       0       0       0       0       0       0       0       0       0       0       0       
      +0       0       0       0       0       0       0       0       0       0       0       0       0       0       0       
      +0       0       0       0       0       0       0       0       0       0
  4532 ;;      Temps:          1       0       0       0       0       0       0       0       0       0       0       0       
      +0       0       0       0       0       0       0       0       0       0       0       0       0       0       0       
      +0       0       0       0       0       0       0       0       0       0       0       0       0       0       0       
      +0       0       0       0       0       0       0       0       0       0
  4533 ;;      Totals:         4       7       0       0       0       0       0       0       0       0       0       0       
      +0       0       0       0       0       0       0       0       0       0       0       0       0       0       0       
      +0       0       0       0       0       0       0       0       0       0       0       0       0       0       0       
      +0       0       0       0       0       0       0       0       0       0
  4534 ;;Total ram usage:       11 bytes
  4535 ;; Hardware stack levels used: 1
  4536 ;; Hardware stack levels required when called: 3
  4537 ;; This function calls:
  4538 ;;		_SSD1306_Command
  4539 ;; This function is called by:
  4540 ;;		_main
  4541 ;; This function uses a non-reentrant model
  4542 ;;
  4543                           
  4544     0610                     _Horz_Goto_XY:	
  4545                           ;psect for function _Horz_Goto_XY
  4546                           
  4547                           
  4548                           ;incstack = 0
  4549                           ; Regs used in _Horz_Goto_XY: [wreg-fsr1h+status,2+status,0+pclath+cstack]
  4550                           ;Horz_Goto_XY@start_column stored from wreg
  4551     0610  0140               	movlb	0	; select bank0
  4552     0611  00A6               	movwf	Horz_Goto_XY@start_column
  4553     0612                     l1260:
  4554                           
  4555                           ;../PIC16F18877/in_progress/SSD1306_drivers.c: 99:   uint8_t goto_xy[6] = {
  4556     0612  304D               	movlw	low Horz_Goto_XY@F12209
  4557     0613  0086               	movwf	6
  4558     0614  3000               	movlw	high Horz_Goto_XY@F12209
  4559     0615  0087               	movwf	7
  4560     0616  3020               	movlw	low Horz_Goto_XY@goto_xy
  4561     0617  0084               	movwf	4
  4562     0618  3000               	movlw	high Horz_Goto_XY@goto_xy
  4563     0619  0085               	movwf	5
  4564     061A  3006               	movlw	6
  4565     061B  00FA               	movwf	??_Horz_Goto_XY
  4566     061C                     u290:
  4567     061C  0016               	moviw fsr1++
  4568     061D  001A               	movwi fsr0++
  4569     061E  0BFA               	decfsz	??_Horz_Goto_XY,f
  4570     061F  2E1C               	goto	u290
  4571     0620                     l1262:
  4572                           
  4573                           ;../PIC16F18877/in_progress/SSD1306_drivers.c: 109:   goto_xy[1] = start_column;
  4574     0620  0826               	movf	Horz_Goto_XY@start_column,w
  4575     0621  00A1               	movwf	Horz_Goto_XY@goto_xy+1
  4576     0622                     l1264:
  4577                           
  4578                           ;../PIC16F18877/in_progress/SSD1306_drivers.c: 110:   goto_xy[2] = end_column;
  4579     0622  0877               	movf	Horz_Goto_XY@end_column,w
  4580     0623  00A2               	movwf	Horz_Goto_XY@goto_xy+2
  4581     0624                     l1266:
  4582                           
  4583                           ;../PIC16F18877/in_progress/SSD1306_drivers.c: 111:   goto_xy[4] = start_row;
  4584     0624  0878               	movf	Horz_Goto_XY@start_row,w
  4585     0625  00A4               	movwf	Horz_Goto_XY@goto_xy+4
  4586     0626                     l1268:
  4587                           
  4588                           ;../PIC16F18877/in_progress/SSD1306_drivers.c: 112:   goto_xy[5] = end_row;
  4589     0626  0879               	movf	Horz_Goto_XY@end_row,w
  4590     0627  00A5               	movwf	Horz_Goto_XY@goto_xy+5
  4591     0628                     l1270:
  4592                           
  4593                           ;../PIC16F18877/in_progress/SSD1306_drivers.c: 114:   SSD1306_Command(goto_xy, 6);
  4594     0628  3020               	movlw	low Horz_Goto_XY@goto_xy
  4595     0629  00F1               	movwf	SSD1306_Command@array
  4596     062A  3000               	movlw	high Horz_Goto_XY@goto_xy
  4597     062B  00F2               	movwf	SSD1306_Command@array+1
  4598     062C  3006               	movlw	6
  4599     062D  00F3               	movwf	SSD1306_Command@size_array
  4600     062E  3186  2632  3186   	fcall	_SSD1306_Command
  4601     0631                     l201:
  4602     0631  0008               	return
  4603     0632                     __end_of_Horz_Goto_XY:
  4604                           
  4605                           	psect	text8
  4606     0632                     __ptext8:	
  4607 ;; *************** function _SSD1306_Command *****************
  4608 ;; Defined at:
  4609 ;;		line 22 in file "../PIC16F18877/in_progress/SSD1306_drivers.c"
  4610 ;; Parameters:    Size  Location     Type
  4611 ;;  array           2    1[COMMON] PTR const unsigned char 
  4612 ;;		 -> Horz_Goto_XY@goto_xy(6), entire_screen(6), horz_init(23), 
  4613 ;;  size_array      1    3[COMMON] unsigned char 
  4614 ;; Auto vars:     Size  Location     Type
  4615 ;;  i               2    5[COMMON] int 
  4616 ;; Return value:  Size  Location     Type
  4617 ;;                  1    wreg      void 
  4618 ;; Registers used:
  4619 ;;		wreg, fsr0l, fsr0h, status,2, status,0, pclath, cstack
  4620 ;; Tracked objects:
  4621 ;;		On entry : 0/0
  4622 ;;		On exit  : 0/0
  4623 ;;		Unchanged: 0/0
  4624 ;; Data sizes:     COMMON   BANK0   BANK1   BANK2   BANK3   BANK4   BANK5   BANK6   BANK7   BANK8   BANK9  BANK10  BANK1
      +1  BANK12  BANK13  BANK14  BANK15  BANK16  BANK17  BANK18  BANK19  BANK20  BANK21  BANK22  BANK23  BANK24  BANK25  BANK2
      +6  BANK27  BANK28  BANK29  BANK30  BANK31  BANK32  BANK33  BANK34  BANK35  BANK36  BANK37  BANK38  BANK39  BANK40  BANK4
      +1  BANK42  BANK43  BANK44  BANK45  BANK46  BANK47  BANK48  BANK49  BANK50
  4625 ;;      Params:         3       0       0       0       0       0       0       0       0       0       0       0       
      +0       0       0       0       0       0       0       0       0       0       0       0       0       0       0       
      +0       0       0       0       0       0       0       0       0       0       0       0       0       0       0       
      +0       0       0       0       0       0       0       0       0       0
  4626 ;;      Locals:         2       0       0       0       0       0       0       0       0       0       0       0       
      +0       0       0       0       0       0       0       0       0       0       0       0       0       0       0       
      +0       0       0       0       0       0       0       0       0       0       0       0       0       0       0       
      +0       0       0       0       0       0       0       0       0       0
  4627 ;;      Temps:          1       0       0       0       0       0       0       0       0       0       0       0       
      +0       0       0       0       0       0       0       0       0       0       0       0       0       0       0       
      +0       0       0       0       0       0       0       0       0       0       0       0       0       0       0       
      +0       0       0       0       0       0       0       0       0       0
  4628 ;;      Totals:         6       0       0       0       0       0       0       0       0       0       0       0       
      +0       0       0       0       0       0       0       0       0       0       0       0       0       0       0       
      +0       0       0       0       0       0       0       0       0       0       0       0       0       0       0       
      +0       0       0       0       0       0       0       0       0       0
  4629 ;;Total ram usage:        6 bytes
  4630 ;; Hardware stack levels used: 1
  4631 ;; Hardware stack levels required when called: 2
  4632 ;; This function calls:
  4633 ;;		_I2C_Start
  4634 ;;		_I2C_Stop
  4635 ;;		_I2C_Write
  4636 ;; This function is called by:
  4637 ;;		_SSD1306_Init
  4638 ;;		_horizontal_fill_screen
  4639 ;;		_Horz_Goto_XY
  4640 ;; This function uses a non-reentrant model
  4641 ;;
  4642                           
  4643     0632                     _SSD1306_Command:	
  4644                           ;psect for function _SSD1306_Command
  4645                           
  4646     0632                     l1188:	
  4647                           ;incstack = 0
  4648                           ; Regs used in _SSD1306_Command: [wreg-fsr0h+status,2+status,0+pclath+cstack]
  4649                           
  4650                           
  4651                           ;../PIC16F18877/in_progress/SSD1306_drivers.c: 24:     I2C_Start();
  4652     0632  3185  2593  3186   	fcall	_I2C_Start
  4653                           
  4654                           ;../PIC16F18877/in_progress/SSD1306_drivers.c: 25:     I2C_Write(0x78);
  4655     0635  3078               	movlw	120
  4656     0636  3185  25A7  3186   	fcall	_I2C_Write
  4657                           
  4658                           ;../PIC16F18877/in_progress/SSD1306_drivers.c: 26:     I2C_Write(0x00);
  4659     0639  3000               	movlw	0
  4660     063A  3185  25A7  3186   	fcall	_I2C_Write
  4661     063D                     l1190:
  4662                           
  4663                           ;../PIC16F18877/in_progress/SSD1306_drivers.c: 28:     for(int i = 0; i < size_array; i+
      +                          +){
  4664     063D  01F5               	clrf	SSD1306_Command@i
  4665     063E  01F6               	clrf	SSD1306_Command@i+1
  4666     063F  2E4E               	goto	l1196
  4667     0640                     l1192:
  4668                           
  4669                           ;../PIC16F18877/in_progress/SSD1306_drivers.c: 29:       I2C_Write(array[i]);
  4670     0640  0871               	movf	SSD1306_Command@array,w
  4671     0641  0775               	addwf	SSD1306_Command@i,w
  4672     0642  0084               	movwf	4
  4673     0643  0872               	movf	SSD1306_Command@array+1,w
  4674     0644  3D76               	addwfc	SSD1306_Command@i+1,w
  4675     0645  0085               	movwf	5
  4676     0646  0800               	movf	0,w	;code access
  4677     0647  3185  25A7  3186   	fcall	_I2C_Write
  4678     064A                     l1194:
  4679                           
  4680                           ;../PIC16F18877/in_progress/SSD1306_drivers.c: 31:     }
  4681     064A  3001               	movlw	1
  4682     064B  07F5               	addwf	SSD1306_Command@i,f
  4683     064C  3000               	movlw	0
  4684     064D  3DF6               	addwfc	SSD1306_Command@i+1,f
  4685     064E                     l1196:
  4686     064E  0876               	movf	SSD1306_Command@i+1,w
  4687     064F  3A80               	xorlw	128
  4688     0650  00F4               	movwf	??_SSD1306_Command
  4689     0651  3080               	movlw	128
  4690     0652  0274               	subwf	??_SSD1306_Command,w
  4691     0653  1D03               	skipz
  4692     0654  2E57               	goto	u245
  4693     0655  0873               	movf	SSD1306_Command@size_array,w
  4694     0656  0275               	subwf	SSD1306_Command@i,w
  4695     0657                     u245:
  4696     0657  1C03               	skipc
  4697     0658  2E5A               	goto	u241
  4698     0659  2E5B               	goto	u240
  4699     065A                     u241:
  4700     065A  2E40               	goto	l1192
  4701     065B                     u240:
  4702     065B                     l1198:
  4703                           
  4704                           ;../PIC16F18877/in_progress/SSD1306_drivers.c: 32:     I2C_Stop();
  4705     065B  3185  2587  3186   	fcall	_I2C_Stop
  4706     065E                     l183:
  4707     065E  0008               	return
  4708     065F                     __end_of_SSD1306_Command:
  4709                           
  4710                           	psect	text9
  4711     05A7                     __ptext9:	
  4712 ;; *************** function _I2C_Write *****************
  4713 ;; Defined at:
  4714 ;;		line 79 in file "../PIC16F18877/libs/i2c_drivers.c"
  4715 ;; Parameters:    Size  Location     Type
  4716 ;;  I2C_data        1    wreg     unsigned char 
  4717 ;; Auto vars:     Size  Location     Type
  4718 ;;  I2C_data        1    0[COMMON] unsigned char 
  4719 ;; Return value:  Size  Location     Type
  4720 ;;                  1    wreg      void 
  4721 ;; Registers used:
  4722 ;;		wreg, status,2, status,0, pclath, cstack
  4723 ;; Tracked objects:
  4724 ;;		On entry : 0/0
  4725 ;;		On exit  : 0/0
  4726 ;;		Unchanged: 0/0
  4727 ;; Data sizes:     COMMON   BANK0   BANK1   BANK2   BANK3   BANK4   BANK5   BANK6   BANK7   BANK8   BANK9  BANK10  BANK1
      +1  BANK12  BANK13  BANK14  BANK15  BANK16  BANK17  BANK18  BANK19  BANK20  BANK21  BANK22  BANK23  BANK24  BANK25  BANK2
      +6  BANK27  BANK28  BANK29  BANK30  BANK31  BANK32  BANK33  BANK34  BANK35  BANK36  BANK37  BANK38  BANK39  BANK40  BANK4
      +1  BANK42  BANK43  BANK44  BANK45  BANK46  BANK47  BANK48  BANK49  BANK50
  4728 ;;      Params:         0       0       0       0       0       0       0       0       0       0       0       0       
      +0       0       0       0       0       0       0       0       0       0       0       0       0       0       0       
      +0       0       0       0       0       0       0       0       0       0       0       0       0       0       0       
      +0       0       0       0       0       0       0       0       0       0
  4729 ;;      Locals:         1       0       0       0       0       0       0       0       0       0       0       0       
      +0       0       0       0       0       0       0       0       0       0       0       0       0       0       0       
      +0       0       0       0       0       0       0       0       0       0       0       0       0       0       0       
      +0       0       0       0       0       0       0       0       0       0
  4730 ;;      Temps:          0       0       0       0       0       0       0       0       0       0       0       0       
      +0       0       0       0       0       0       0       0       0       0       0       0       0       0       0       
      +0       0       0       0       0       0       0       0       0       0       0       0       0       0       0       
      +0       0       0       0       0       0       0       0       0       0
  4731 ;;      Totals:         1       0       0       0       0       0       0       0       0       0       0       0       
      +0       0       0       0       0       0       0       0       0       0       0       0       0       0       0       
      +0       0       0       0       0       0       0       0       0       0       0       0       0       0       0       
      +0       0       0       0       0       0       0       0       0       0
  4732 ;;Total ram usage:        1 bytes
  4733 ;; Hardware stack levels used: 1
  4734 ;; Hardware stack levels required when called: 1
  4735 ;; This function calls:
  4736 ;;		_I2C_Idle_Check
  4737 ;; This function is called by:
  4738 ;;		_SSD1306_Command
  4739 ;;		_SSD1306_Data
  4740 ;;		_horizontal_fill_screen
  4741 ;;		_put_char
  4742 ;;		_draw_test
  4743 ;;		_GotoXY
  4744 ;; This function uses a non-reentrant model
  4745 ;;
  4746                           
  4747     05A7                     _I2C_Write:	
  4748                           ;psect for function _I2C_Write
  4749                           
  4750                           
  4751                           ;incstack = 0
  4752                           ; Regs used in _I2C_Write: [wreg+status,2+status,0+pclath+cstack]
  4753                           ;I2C_Write@I2C_data stored from wreg
  4754     05A7  00F0               	movwf	I2C_Write@I2C_data
  4755     05A8                     l1182:
  4756                           
  4757                           ;../PIC16F18877/libs/i2c_drivers.c: 81:   I2C_Idle_Check();
  4758     05A8  3185  25BF  3185   	fcall	_I2C_Idle_Check
  4759     05AB                     l1184:
  4760                           
  4761                           ;../PIC16F18877/libs/i2c_drivers.c: 82:   SSP1BUF = I2C_data;
  4762     05AB  0870               	movf	I2C_Write@I2C_data,w
  4763     05AC  0143               	movlb	3	; select bank3
  4764     05AD  008C               	movwf	12	;volatile
  4765     05AE                     l122:	
  4766                           ;../PIC16F18877/libs/i2c_drivers.c: 84:     ;
  4767                           
  4768                           
  4769                           ;../PIC16F18877/libs/i2c_drivers.c: 83:   while (SSP1STATbits.BF == 1)
  4770     05AE  180F               	btfsc	15,0	;volatile
  4771     05AF  2DB1               	goto	u231
  4772     05B0  2DB2               	goto	u230
  4773     05B1                     u231:
  4774     05B1  2DAE               	goto	l122
  4775     05B2                     u230:
  4776     05B2                     l125:
  4777     05B2  0008               	return
  4778     05B3                     __end_of_I2C_Write:
  4779                           
  4780                           	psect	text10
  4781     0587                     __ptext10:	
  4782 ;; *************** function _I2C_Stop *****************
  4783 ;; Defined at:
  4784 ;;		line 53 in file "../PIC16F18877/libs/i2c_drivers.c"
  4785 ;; Parameters:    Size  Location     Type
  4786 ;;		None
  4787 ;; Auto vars:     Size  Location     Type
  4788 ;;		None
  4789 ;; Return value:  Size  Location     Type
  4790 ;;                  1    wreg      void 
  4791 ;; Registers used:
  4792 ;;		wreg, status,2, status,0, pclath, cstack
  4793 ;; Tracked objects:
  4794 ;;		On entry : 0/0
  4795 ;;		On exit  : 0/0
  4796 ;;		Unchanged: 0/0
  4797 ;; Data sizes:     COMMON   BANK0   BANK1   BANK2   BANK3   BANK4   BANK5   BANK6   BANK7   BANK8   BANK9  BANK10  BANK1
      +1  BANK12  BANK13  BANK14  BANK15  BANK16  BANK17  BANK18  BANK19  BANK20  BANK21  BANK22  BANK23  BANK24  BANK25  BANK2
      +6  BANK27  BANK28  BANK29  BANK30  BANK31  BANK32  BANK33  BANK34  BANK35  BANK36  BANK37  BANK38  BANK39  BANK40  BANK4
      +1  BANK42  BANK43  BANK44  BANK45  BANK46  BANK47  BANK48  BANK49  BANK50
  4798 ;;      Params:         0       0       0       0       0       0       0       0       0       0       0       0       
      +0       0       0       0       0       0       0       0       0       0       0       0       0       0       0       
      +0       0       0       0       0       0       0       0       0       0       0       0       0       0       0       
      +0       0       0       0       0       0       0       0       0       0
  4799 ;;      Locals:         0       0       0       0       0       0       0       0       0       0       0       0       
      +0       0       0       0       0       0       0       0       0       0       0       0       0       0       0       
      +0       0       0       0       0       0       0       0       0       0       0       0       0       0       0       
      +0       0       0       0       0       0       0       0       0       0
  4800 ;;      Temps:          0       0       0       0       0       0       0       0       0       0       0       0       
      +0       0       0       0       0       0       0       0       0       0       0       0       0       0       0       
      +0       0       0       0       0       0       0       0       0       0       0       0       0       0       0       
      +0       0       0       0       0       0       0       0       0       0
  4801 ;;      Totals:         0       0       0       0       0       0       0       0       0       0       0       0       
      +0       0       0       0       0       0       0       0       0       0       0       0       0       0       0       
      +0       0       0       0       0       0       0       0       0       0       0       0       0       0       0       
      +0       0       0       0       0       0       0       0       0       0
  4802 ;;Total ram usage:        0 bytes
  4803 ;; Hardware stack levels used: 1
  4804 ;; Hardware stack levels required when called: 1
  4805 ;; This function calls:
  4806 ;;		_I2C_Idle_Check
  4807 ;; This function is called by:
  4808 ;;		_SSD1306_Command
  4809 ;;		_horizontal_fill_screen
  4810 ;;		_put_char
  4811 ;;		_draw_test
  4812 ;;		_GotoXY
  4813 ;; This function uses a non-reentrant model
  4814 ;;
  4815                           
  4816     0587                     _I2C_Stop:	
  4817                           ;psect for function _I2C_Stop
  4818                           
  4819     0587                     l1178:	
  4820                           ;incstack = 0
  4821                           ; Regs used in _I2C_Stop: [wreg+status,2+status,0+pclath+cstack]
  4822                           
  4823                           
  4824                           ;../PIC16F18877/libs/i2c_drivers.c: 55:   I2C_Idle_Check();
  4825     0587  3185  25BF  3185   	fcall	_I2C_Idle_Check
  4826     058A                     l1180:
  4827     058A  0143               	movlb	3	; select bank3
  4828     058B  1511               	bsf	17,2	;volatile
  4829     058C                     l114:
  4830     058C  0008               	return
  4831     058D                     __end_of_I2C_Stop:
  4832                           
  4833                           	psect	text11
  4834     0593                     __ptext11:	
  4835 ;; *************** function _I2C_Start *****************
  4836 ;; Defined at:
  4837 ;;		line 38 in file "../PIC16F18877/libs/i2c_drivers.c"
  4838 ;; Parameters:    Size  Location     Type
  4839 ;;		None
  4840 ;; Auto vars:     Size  Location     Type
  4841 ;;		None
  4842 ;; Return value:  Size  Location     Type
  4843 ;;                  1    wreg      void 
  4844 ;; Registers used:
  4845 ;;		wreg, status,2, status,0, pclath, cstack
  4846 ;; Tracked objects:
  4847 ;;		On entry : 0/0
  4848 ;;		On exit  : 0/0
  4849 ;;		Unchanged: 0/0
  4850 ;; Data sizes:     COMMON   BANK0   BANK1   BANK2   BANK3   BANK4   BANK5   BANK6   BANK7   BANK8   BANK9  BANK10  BANK1
      +1  BANK12  BANK13  BANK14  BANK15  BANK16  BANK17  BANK18  BANK19  BANK20  BANK21  BANK22  BANK23  BANK24  BANK25  BANK2
      +6  BANK27  BANK28  BANK29  BANK30  BANK31  BANK32  BANK33  BANK34  BANK35  BANK36  BANK37  BANK38  BANK39  BANK40  BANK4
      +1  BANK42  BANK43  BANK44  BANK45  BANK46  BANK47  BANK48  BANK49  BANK50
  4851 ;;      Params:         0       0       0       0       0       0       0       0       0       0       0       0       
      +0       0       0       0       0       0       0       0       0       0       0       0       0       0       0       
      +0       0       0       0       0       0       0       0       0       0       0       0       0       0       0       
      +0       0       0       0       0       0       0       0       0       0
  4852 ;;      Locals:         0       0       0       0       0       0       0       0       0       0       0       0       
      +0       0       0       0       0       0       0       0       0       0       0       0       0       0       0       
      +0       0       0       0       0       0       0       0       0       0       0       0       0       0       0       
      +0       0       0       0       0       0       0       0       0       0
  4853 ;;      Temps:          0       0       0       0       0       0       0       0       0       0       0       0       
      +0       0       0       0       0       0       0       0       0       0       0       0       0       0       0       
      +0       0       0       0       0       0       0       0       0       0       0       0       0       0       0       
      +0       0       0       0       0       0       0       0       0       0
  4854 ;;      Totals:         0       0       0       0       0       0       0       0       0       0       0       0       
      +0       0       0       0       0       0       0       0       0       0       0       0       0       0       0       
      +0       0       0       0       0       0       0       0       0       0       0       0       0       0       0       
      +0       0       0       0       0       0       0       0       0       0
  4855 ;;Total ram usage:        0 bytes
  4856 ;; Hardware stack levels used: 1
  4857 ;; Hardware stack levels required when called: 1
  4858 ;; This function calls:
  4859 ;;		_I2C_Idle_Check
  4860 ;; This function is called by:
  4861 ;;		_SSD1306_Command
  4862 ;;		_SSD1306_Data
  4863 ;;		_draw_test
  4864 ;; This function uses a non-reentrant model
  4865 ;;
  4866                           
  4867     0593                     _I2C_Start:	
  4868                           ;psect for function _I2C_Start
  4869                           
  4870     0593                     l1174:	
  4871                           ;incstack = 0
  4872                           ; Regs used in _I2C_Start: [wreg+status,2+status,0+pclath+cstack]
  4873                           
  4874                           
  4875                           ;../PIC16F18877/libs/i2c_drivers.c: 40:   I2C_Idle_Check();
  4876     0593  3185  25BF  3185   	fcall	_I2C_Idle_Check
  4877     0596                     l1176:
  4878     0596  0143               	movlb	3	; select bank3
  4879     0597  1411               	bsf	17,0	;volatile
  4880     0598                     l106:	
  4881                           ;../PIC16F18877/libs/i2c_drivers.c: 43:     ;
  4882                           
  4883                           
  4884                           ;../PIC16F18877/libs/i2c_drivers.c: 42:   while (SSP1CON2bits.SEN == 1)
  4885     0598  1811               	btfsc	17,0	;volatile
  4886     0599  2D9B               	goto	u221
  4887     059A  2D9C               	goto	u220
  4888     059B                     u221:
  4889     059B  2D98               	goto	l106
  4890     059C                     u220:
  4891     059C                     l109:
  4892     059C  0008               	return
  4893     059D                     __end_of_I2C_Start:
  4894                           
  4895                           	psect	text12
  4896     05BF                     __ptext12:	
  4897 ;; *************** function _I2C_Idle_Check *****************
  4898 ;; Defined at:
  4899 ;;		line 139 in file "../PIC16F18877/libs/i2c_drivers.c"
  4900 ;; Parameters:    Size  Location     Type
  4901 ;;		None
  4902 ;; Auto vars:     Size  Location     Type
  4903 ;;		None
  4904 ;; Return value:  Size  Location     Type
  4905 ;;                  1    wreg      void 
  4906 ;; Registers used:
  4907 ;;		wreg, status,2, status,0
  4908 ;; Tracked objects:
  4909 ;;		On entry : 0/0
  4910 ;;		On exit  : 0/0
  4911 ;;		Unchanged: 0/0
  4912 ;; Data sizes:     COMMON   BANK0   BANK1   BANK2   BANK3   BANK4   BANK5   BANK6   BANK7   BANK8   BANK9  BANK10  BANK1
      +1  BANK12  BANK13  BANK14  BANK15  BANK16  BANK17  BANK18  BANK19  BANK20  BANK21  BANK22  BANK23  BANK24  BANK25  BANK2
      +6  BANK27  BANK28  BANK29  BANK30  BANK31  BANK32  BANK33  BANK34  BANK35  BANK36  BANK37  BANK38  BANK39  BANK40  BANK4
      +1  BANK42  BANK43  BANK44  BANK45  BANK46  BANK47  BANK48  BANK49  BANK50
  4913 ;;      Params:         0       0       0       0       0       0       0       0       0       0       0       0       
      +0       0       0       0       0       0       0       0       0       0       0       0       0       0       0       
      +0       0       0       0       0       0       0       0       0       0       0       0       0       0       0       
      +0       0       0       0       0       0       0       0       0       0
  4914 ;;      Locals:         0       0       0       0       0       0       0       0       0       0       0       0       
      +0       0       0       0       0       0       0       0       0       0       0       0       0       0       0       
      +0       0       0       0       0       0       0       0       0       0       0       0       0       0       0       
      +0       0       0       0       0       0       0       0       0       0
  4915 ;;      Temps:          0       0       0       0       0       0       0       0       0       0       0       0       
      +0       0       0       0       0       0       0       0       0       0       0       0       0       0       0       
      +0       0       0       0       0       0       0       0       0       0       0       0       0       0       0       
      +0       0       0       0       0       0       0       0       0       0
  4916 ;;      Totals:         0       0       0       0       0       0       0       0       0       0       0       0       
      +0       0       0       0       0       0       0       0       0       0       0       0       0       0       0       
      +0       0       0       0       0       0       0       0       0       0       0       0       0       0       0       
      +0       0       0       0       0       0       0       0       0       0
  4917 ;;Total ram usage:        0 bytes
  4918 ;; Hardware stack levels used: 1
  4919 ;; This function calls:
  4920 ;;		Nothing
  4921 ;; This function is called by:
  4922 ;;		_I2C_Start
  4923 ;;		_I2C_Stop
  4924 ;;		_I2C_Write
  4925 ;;		_I2C_Restart
  4926 ;;		_I2C_NotAck_Read
  4927 ;;		_I2C_Ack_Read
  4928 ;; This function uses a non-reentrant model
  4929 ;;
  4930                           
  4931     05BF                     _I2C_Idle_Check:	
  4932                           ;psect for function _I2C_Idle_Check
  4933                           
  4934     05BF                     l1168:	
  4935                           ;incstack = 0
  4936                           ; Regs used in _I2C_Idle_Check: [wreg+status,2+status,0]
  4937                           
  4938     05BF                     l1170:	
  4939                           ;../PIC16F18877/libs/i2c_drivers.c: 141:   while (((SSP1STAT == 0x04) || (SSP1CON2 == 0x
      +                          1f)))
  4940                           
  4941                           
  4942                           ;../PIC16F18877/libs/i2c_drivers.c: 141:   while (((SSP1STAT == 0x04) || (SSP1CON2 == 0x
      +                          1f)))
  4943     05BF  3004               	movlw	4
  4944     05C0  0143               	movlb	3	; select bank3
  4945     05C1  060F               	xorwf	15,w	;volatile
  4946     05C2  1903               	btfsc	3,2
  4947     05C3  2DC5               	goto	u201
  4948     05C4  2DC6               	goto	u200
  4949     05C5                     u201:
  4950     05C5  2DBF               	goto	l1170
  4951     05C6                     u200:
  4952     05C6                     l1172:
  4953     05C6  301F               	movlw	31
  4954     05C7  0611               	xorwf	17,w	;volatile
  4955     05C8  1903               	btfsc	3,2
  4956     05C9  2DCB               	goto	u211
  4957     05CA  2DCC               	goto	u210
  4958     05CB                     u211:
  4959     05CB  2DBF               	goto	l1170
  4960     05CC                     u210:
  4961     05CC                     l151:
  4962     05CC  0008               	return
  4963     05CD                     __end_of_I2C_Idle_Check:
  4964     007E                     btemp	set	126	;btemp
  4965     007E                     wtemp0	set	126
  4966                           
  4967                           	psect	idloc
  4968                           
  4969                           ;Config register IDLOC0 @ 0x8000
  4970                           ;	unspecified, using default values
  4971     8000                     	org	32768
  4972     8000  3FFF               	dw	16383
  4973                           
  4974                           ;Config register IDLOC1 @ 0x8001
  4975                           ;	unspecified, using default values
  4976     8001                     	org	32769
  4977     8001  3FFF               	dw	16383
  4978                           
  4979                           ;Config register IDLOC2 @ 0x8002
  4980                           ;	unspecified, using default values
  4981     8002                     	org	32770
  4982     8002  3FFF               	dw	16383
  4983                           
  4984                           ;Config register IDLOC3 @ 0x8003
  4985                           ;	unspecified, using default values
  4986     8003                     	org	32771
  4987     8003  3FFF               	dw	16383
  4988                           
  4989                           	psect	config
  4990                           
  4991                           ;Config register CONFIG1 @ 0x8007
  4992                           ;	External Oscillator mode selection bits
  4993                           ;	FEXTOSC = OFF, Oscillator not enabled
  4994                           ;	Power-up default value for COSC bits
  4995                           ;	RSTOSC = HFINT1, HFINTOSC (1MHz)
  4996                           ;	Clock Out Enable bit
  4997                           ;	CLKOUTEN = OFF, CLKOUT function is disabled; i/o or oscillator function on OSC2
  4998                           ;	Clock Switch Enable bit
  4999                           ;	CSWEN = ON, Writing to NOSC and NDIV is allowed
  5000                           ;	Fail-Safe Clock Monitor Enable bit
  5001                           ;	FCMEN = ON, FSCM timer enabled
  5002     8007                     	org	32775
  5003     8007  3FEC               	dw	16364
  5004                           
  5005                           ;Config register CONFIG2 @ 0x8008
  5006                           ;	Master Clear Enable bit
  5007                           ;	MCLRE = ON, MCLR pin is Master Clear function
  5008                           ;	Power-up Timer Enable bit
  5009                           ;	PWRTE = OFF, PWRT disabled
  5010                           ;	Low-Power BOR enable bit
  5011                           ;	LPBOREN = OFF, ULPBOR disabled
  5012                           ;	Brown-out reset enable bits
  5013                           ;	BOREN = ON, Brown-out Reset Enabled, SBOREN bit is ignored
  5014                           ;	Brown-out Reset Voltage Selection
  5015                           ;	BORV = LO, Brown-out Reset Voltage (VBOR) set to 1.9V on LF, and 2.45V on F Devices
  5016                           ;	Zero-cross detect disable
  5017                           ;	ZCD = OFF, Zero-cross detect circuit is disabled at POR.
  5018                           ;	Peripheral Pin Select one-way control
  5019                           ;	PPS1WAY = ON, The PPSLOCK bit can be cleared and set only once in software
  5020                           ;	Stack Overflow/Underflow Reset Enable bit
  5021                           ;	STVREN = ON, Stack Overflow or Underflow will cause a reset
  5022                           ;	Background Debugger
  5023                           ;	DEBUG = OFF, Background Debugger disabled
  5024     8008                     	org	32776
  5025     8008  3FFF               	dw	16383
  5026                           
  5027                           ;Config register CONFIG3 @ 0x8009
  5028                           ;	WDT Period Select bits
  5029                           ;	WDTCPS = WDTCPS_31, Divider ratio 1:65536; software control of WDTPS
  5030                           ;	WDT operating mode
  5031                           ;	WDTE = OFF, WDT Disabled, SWDTEN is ignored
  5032                           ;	WDT Window Select bits
  5033                           ;	WDTCWS = WDTCWS_7, window always open (100%); software control; keyed access not requi
      +                          red
  5034                           ;	WDT input clock selector
  5035                           ;	WDTCCS = SC, Software Control
  5036     8009                     	org	32777
  5037     8009  3F9F               	dw	16287
  5038                           
  5039                           ;Config register CONFIG4 @ 0x800A
  5040                           ;	UserNVM self-write protection bits
  5041                           ;	WRT = OFF, Write protection off
  5042                           ;	Scanner Enable bit
  5043                           ;	SCANE = available, Scanner module is available for use
  5044                           ;	Low Voltage Programming Enable bit
  5045                           ;	LVP = ON, Low Voltage programming enabled. MCLR/Vpp pin function is MCLR.
  5046     800A                     	org	32778
  5047     800A  3FFF               	dw	16383
  5048                           
  5049                           ;Config register CONFIG5 @ 0x800B
  5050                           ;	UserNVM Program memory code protection bit
  5051                           ;	CP = OFF, Program Memory code protection disabled
  5052                           ;	DataNVM code protection bit
  5053                           ;	CPD = OFF, Data EEPROM code protection disabled
  5054     800B                     	org	32779
  5055     800B  3FFF               	dw	16383

Data Sizes:
    Strings     0
    Constant    504
    Data        22
    BSS         3
    Persistent  32
    Stack       0

Auto Spaces:
    Space          Size  Autos    Used
    COMMON           14     13      14
    BANK0            80     30      54
    BANK1            80      0       0
    BANK2            80      0       0
    BANK3            80      0       0
    BANK4            80      0       0
    BANK5            80      0       0
    BANK6            80      0       0
    BANK7            80      0       0
    BANK8            80      0       0
    BANK9            80      0       0
    BANK10           80      0       0
    BANK11           80      0       0
    BANK12           80      0       0
    BANK13           80      0       0
    BANK14           80      0       0
    BANK15           80      0       0
    BANK16           80      0       0
    BANK17           80      0       0
    BANK18           80      0       0
    BANK19           80      0       0
    BANK20           80      0       0
    BANK21           80      0       0
    BANK22           80      0       0
    BANK23           80      0       0
    BANK24           80      0       0
    BANK25           80      0       0
    BANK26           80      0       0
    BANK27           80      0       0
    BANK28           80      0       0
    BANK29           80      0       0
    BANK30           80      0       0
    BANK31           80      0       0
    BANK32           80      0       0
    BANK33           80      0       0
    BANK34           80      0       0
    BANK35           80      0       0
    BANK36           80      0       0
    BANK37           80      0       0
    BANK38           80      0       0
    BANK39           80      0       0
    BANK40           80      0       0
    BANK41           80      0       0
    BANK42           80      0       0
    BANK43           80      0       0
    BANK44           80      0       0
    BANK45           80      0       0
    BANK46           80      0       0
    BANK47           80      0       0
    BANK48           80      0       0
    BANK49           80      0       0
    BANK50           80      0       0

Pointer List with Targets:

    put_char@font	PTR unsigned char  size(1) Largest target is 15
		 -> main@phrase(BANK0[15]), 

    y_pos	PTR unsigned char  size(1) Largest target is 1
		 -> NULL(NULL[0]), GotoXY@row(COMMON[1]), 

    x_pos	PTR unsigned char  size(1) Largest target is 1
		 -> NULL(NULL[0]), GotoXY@byte(COMMON[1]), 

    SSD1306_Command@array	PTR const unsigned char  size(2) Largest target is 23
		 -> Horz_Goto_XY@goto_xy(BANK0[6]), entire_screen(CODE[6]), horz_init(CODE[23]), 


Critical Paths under _main in COMMON

    _main->_Horz_Goto_XY
    _main->_horizontal_fill_screen
    _put_char->___bmul
    _horizontal_fill_screen->_SSD1306_Command
    _SSD1306_Data->_I2C_Write
    _SSD1306_Init->_SSD1306_Command
    _Horz_Goto_XY->_SSD1306_Command
    _SSD1306_Command->_I2C_Write

Critical Paths under _main in BANK0

    _main->_Horz_Goto_XY

Critical Paths under _main in BANK1

    None.

Critical Paths under _main in BANK2

    None.

Critical Paths under _main in BANK3

    None.

Critical Paths under _main in BANK4

    None.

Critical Paths under _main in BANK5

    None.

Critical Paths under _main in BANK6

    None.

Critical Paths under _main in BANK7

    None.

Critical Paths under _main in BANK8

    None.

Critical Paths under _main in BANK9

    None.

Critical Paths under _main in BANK10

    None.

Critical Paths under _main in BANK11

    None.

Critical Paths under _main in BANK12

    None.

Critical Paths under _main in BANK13

    None.

Critical Paths under _main in BANK14

    None.

Critical Paths under _main in BANK15

    None.

Critical Paths under _main in BANK16

    None.

Critical Paths under _main in BANK17

    None.

Critical Paths under _main in BANK18

    None.

Critical Paths under _main in BANK19

    None.

Critical Paths under _main in BANK20

    None.

Critical Paths under _main in BANK21

    None.

Critical Paths under _main in BANK22

    None.

Critical Paths under _main in BANK23

    None.

Critical Paths under _main in BANK24

    None.

Critical Paths under _main in BANK25

    None.

Critical Paths under _main in BANK26

    None.

Critical Paths under _main in BANK27

    None.

Critical Paths under _main in BANK28

    None.

Critical Paths under _main in BANK29

    None.

Critical Paths under _main in BANK30

    None.

Critical Paths under _main in BANK31

    None.

Critical Paths under _main in BANK32

    None.

Critical Paths under _main in BANK33

    None.

Critical Paths under _main in BANK34

    None.

Critical Paths under _main in BANK35

    None.

Critical Paths under _main in BANK36

    None.

Critical Paths under _main in BANK37

    None.

Critical Paths under _main in BANK38

    None.

Critical Paths under _main in BANK39

    None.

Critical Paths under _main in BANK40

    None.

Critical Paths under _main in BANK41

    None.

Critical Paths under _main in BANK42

    None.

Critical Paths under _main in BANK43

    None.

Critical Paths under _main in BANK44

    None.

Critical Paths under _main in BANK45

    None.

Critical Paths under _main in BANK46

    None.

Critical Paths under _main in BANK47

    None.

Critical Paths under _main in BANK48

    None.

Critical Paths under _main in BANK49

    None.

Critical Paths under _main in BANK50

    None.

Call Graph Tables:

 ---------------------------------------------------------------------------------
 (Depth) Function   	        Calls       Base Space   Used Autos Params    Refs
 ---------------------------------------------------------------------------------
 (0) _main                                                25    25      0    3872
                                             11 COMMON     2     2      0
                                              7 BANK0     23    23      0
                       _Horz_Goto_XY
                           _I2C_Init
                       _SSD1306_Data
                       _SSD1306_Init
             _horizontal_fill_screen
                           _put_char
 ---------------------------------------------------------------------------------
 (1) _put_char                                             6     6      0     505
                                              4 COMMON     6     6      0
                           _I2C_Stop
                          _I2C_Write
                       _SSD1306_Data
                             ___bmul
 ---------------------------------------------------------------------------------
 (2) ___bmul                                               4     3      1     168
                                              0 COMMON     4     3      1
 ---------------------------------------------------------------------------------
 (1) _horizontal_fill_screen                               4     4      0     727
                                              7 COMMON     4     4      0
                           _I2C_Stop
                          _I2C_Write
                    _SSD1306_Command
                       _SSD1306_Data
 ---------------------------------------------------------------------------------
 (2) _SSD1306_Data                                         0     0      0      22
                          _I2C_Start
                          _I2C_Write
 ---------------------------------------------------------------------------------
 (1) _SSD1306_Init                                         0     0      0     568
                    _SSD1306_Command
 ---------------------------------------------------------------------------------
 (1) _I2C_Init                                             0     0      0       0
 ---------------------------------------------------------------------------------
 (1) _Horz_Goto_XY                                        11     8      3    1688
                                              7 COMMON     4     1      3
                                              0 BANK0      7     7      0
                    _SSD1306_Command
 ---------------------------------------------------------------------------------
 (2) _SSD1306_Command                                      6     3      3     568
                                              1 COMMON     6     3      3
                          _I2C_Start
                           _I2C_Stop
                          _I2C_Write
 ---------------------------------------------------------------------------------
 (3) _I2C_Write                                            1     1      0      22
                                              0 COMMON     1     1      0
                     _I2C_Idle_Check
 ---------------------------------------------------------------------------------
 (2) _I2C_Stop                                             0     0      0       0
                     _I2C_Idle_Check
 ---------------------------------------------------------------------------------
 (3) _I2C_Start                                            0     0      0       0
                     _I2C_Idle_Check
 ---------------------------------------------------------------------------------
 (4) _I2C_Idle_Check                                       0     0      0       0
 ---------------------------------------------------------------------------------
 Estimated maximum stack depth 4
 ---------------------------------------------------------------------------------

 Call Graph Graphs:

 _main (ROOT)
   _Horz_Goto_XY
     _SSD1306_Command
       _I2C_Start
         _I2C_Idle_Check
       _I2C_Stop
         _I2C_Idle_Check
       _I2C_Write
         _I2C_Idle_Check
   _I2C_Init
   _SSD1306_Data
     _I2C_Start
     _I2C_Write
   _SSD1306_Init
     _SSD1306_Command
   _horizontal_fill_screen
     _I2C_Stop
     _I2C_Write
     _SSD1306_Command
     _SSD1306_Data
   _put_char
     _I2C_Stop
     _I2C_Write
     _SSD1306_Data
     ___bmul

 Address spaces:
Name               Size   Autos  Total    Cost      Usage
BIGRAM             FF0      0       0       0        0.0%
EEDATA             100      0       0       0        0.0%
NULL                 0      0       0       0        0.0%
CODE                 0      0       0       0        0.0%
BITCOMMON            E      0       0       1        0.0%
BITSFR0              0      0       0       1        0.0%
SFR0                 0      0       0       1        0.0%
COMMON               E      D       E       2      100.0%
BITSFR1              0      0       0       2        0.0%
SFR1                 0      0       0       2        0.0%
BITSFR2              0      0       0       3        0.0%
SFR2                 0      0       0       3        0.0%
STACK                0      0       0       3        0.0%
BITBANK0            50      0       0       4        0.0%
BITSFR3              0      0       0       4        0.0%
SFR3                 0      0       0       4        0.0%
BANK0               50     1E      36       5       67.5%
BITSFR4              0      0       0       5        0.0%
SFR4                 0      0       0       5        0.0%
BITBANK1            50      0       0       6        0.0%
BITSFR5              0      0       0       6        0.0%
SFR5                 0      0       0       6        0.0%
BANK1               50      0       0       7        0.0%
BITSFR6              0      0       0       7        0.0%
SFR6                 0      0       0       7        0.0%
BITBANK2            50      0       0       8        0.0%
BITSFR7              0      0       0       8        0.0%
SFR7                 0      0       0       8        0.0%
BANK2               50      0       0       9        0.0%
BITSFR8              0      0       0       9        0.0%
SFR8                 0      0       0       9        0.0%
BITBANK3            50      0       0      10        0.0%
BITSFR9              0      0       0      10        0.0%
SFR9                 0      0       0      10        0.0%
BANK3               50      0       0      11        0.0%
BITSFR10             0      0       0      11        0.0%
SFR10                0      0       0      11        0.0%
BITBANK4            50      0       0      12        0.0%
BITSFR11             0      0       0      12        0.0%
SFR11                0      0       0      12        0.0%
BANK4               50      0       0      13        0.0%
BITSFR12             0      0       0      13        0.0%
SFR12                0      0       0      13        0.0%
BITBANK5            50      0       0      14        0.0%
BITSFR13             0      0       0      14        0.0%
SFR13                0      0       0      14        0.0%
BANK5               50      0       0      15        0.0%
BITSFR14             0      0       0      15        0.0%
SFR14                0      0       0      15        0.0%
BITBANK6            50      0       0      16        0.0%
BITSFR15             0      0       0      16        0.0%
SFR15                0      0       0      16        0.0%
BANK6               50      0       0      17        0.0%
BITSFR16             0      0       0      17        0.0%
SFR16                0      0       0      17        0.0%
BITBANK7            50      0       0      18        0.0%
BITSFR17             0      0       0      18        0.0%
SFR17                0      0       0      18        0.0%
BANK7               50      0       0      19        0.0%
BITSFR18             0      0       0      19        0.0%
SFR18                0      0       0      19        0.0%
BITBANK8            50      0       0      20        0.0%
BITSFR19             0      0       0      20        0.0%
SFR19                0      0       0      20        0.0%
BANK8               50      0       0      21        0.0%
BITSFR20             0      0       0      21        0.0%
SFR20                0      0       0      21        0.0%
BITBANK9            50      0       0      22        0.0%
BITSFR21             0      0       0      22        0.0%
SFR21                0      0       0      22        0.0%
BANK9               50      0       0      23        0.0%
BITSFR22             0      0       0      23        0.0%
SFR22                0      0       0      23        0.0%
BITBANK10           50      0       0      24        0.0%
BITSFR23             0      0       0      24        0.0%
SFR23                0      0       0      24        0.0%
BANK10              50      0       0      25        0.0%
BITSFR24             0      0       0      25        0.0%
SFR24                0      0       0      25        0.0%
BITBANK11           50      0       0      26        0.0%
BITSFR25             0      0       0      26        0.0%
SFR25                0      0       0      26        0.0%
BANK11              50      0       0      27        0.0%
BITSFR26             0      0       0      27        0.0%
SFR26                0      0       0      27        0.0%
BITSFR27             0      0       0      28        0.0%
SFR27                0      0       0      28        0.0%
ABS                  0      0      44      28        0.0%
BITBANK12           50      0       0      29        0.0%
BITSFR28             0      0       0      29        0.0%
SFR28                0      0       0      29        0.0%
BANK12              50      0       0      30        0.0%
BITSFR29             0      0       0      30        0.0%
SFR29                0      0       0      30        0.0%
BITBANK13           50      0       0      31        0.0%
BITSFR30             0      0       0      31        0.0%
SFR30                0      0       0      31        0.0%
BANK13              50      0       0      32        0.0%
BITSFR31             0      0       0      32        0.0%
SFR31                0      0       0      32        0.0%
BITBANK14           50      0       0      33        0.0%
BITSFR32             0      0       0      33        0.0%
SFR32                0      0       0      33        0.0%
BANK14              50      0       0      34        0.0%
BITSFR33             0      0       0      34        0.0%
SFR33                0      0       0      34        0.0%
BITBANK15           50      0       0      35        0.0%
BITSFR34             0      0       0      35        0.0%
SFR34                0      0       0      35        0.0%
BANK15              50      0       0      36        0.0%
BITSFR35             0      0       0      36        0.0%
SFR35                0      0       0      36        0.0%
BITBANK16           50      0       0      37        0.0%
BITSFR36             0      0       0      37        0.0%
SFR36                0      0       0      37        0.0%
BANK16              50      0       0      38        0.0%
BITSFR37             0      0       0      38        0.0%
SFR37                0      0       0      38        0.0%
BITBANK17           50      0       0      39        0.0%
BITSFR38             0      0       0      39        0.0%
SFR38                0      0       0      39        0.0%
BANK17              50      0       0      40        0.0%
BITSFR39             0      0       0      40        0.0%
SFR39                0      0       0      40        0.0%
BITBANK18           50      0       0      41        0.0%
BITSFR40             0      0       0      41        0.0%
SFR40                0      0       0      41        0.0%
BANK18              50      0       0      42        0.0%
BITSFR41             0      0       0      42        0.0%
SFR41                0      0       0      42        0.0%
BITBANK19           50      0       0      43        0.0%
BITSFR42             0      0       0      43        0.0%
SFR42                0      0       0      43        0.0%
BANK19              50      0       0      44        0.0%
BITSFR43             0      0       0      44        0.0%
SFR43                0      0       0      44        0.0%
BITBANK20           50      0       0      45        0.0%
BITSFR44             0      0       0      45        0.0%
SFR44                0      0       0      45        0.0%
BANK20              50      0       0      46        0.0%
BITSFR45             0      0       0      46        0.0%
SFR45                0      0       0      46        0.0%
BITBANK21           50      0       0      47        0.0%
BITSFR46             0      0       0      47        0.0%
SFR46                0      0       0      47        0.0%
BANK21              50      0       0      48        0.0%
BITSFR47             0      0       0      48        0.0%
SFR47                0      0       0      48        0.0%
BITBANK22           50      0       0      49        0.0%
BITSFR48             0      0       0      49        0.0%
SFR48                0      0       0      49        0.0%
BANK22              50      0       0      50        0.0%
BITSFR49             0      0       0      50        0.0%
SFR49                0      0       0      50        0.0%
BITBANK23           50      0       0      51        0.0%
BITSFR50             0      0       0      51        0.0%
SFR50                0      0       0      51        0.0%
BANK23              50      0       0      52        0.0%
BITSFR51             0      0       0      52        0.0%
SFR51                0      0       0      52        0.0%
BITBANK24           50      0       0      53        0.0%
BITSFR52             0      0       0      53        0.0%
SFR52                0      0       0      53        0.0%
BANK24              50      0       0      54        0.0%
BITSFR53             0      0       0      54        0.0%
SFR53                0      0       0      54        0.0%
BITBANK25           50      0       0      55        0.0%
BITSFR54             0      0       0      55        0.0%
SFR54                0      0       0      55        0.0%
BANK25              50      0       0      56        0.0%
BITSFR55             0      0       0      56        0.0%
SFR55                0      0       0      56        0.0%
BITBANK26           50      0       0      57        0.0%
BITSFR56             0      0       0      57        0.0%
SFR56                0      0       0      57        0.0%
BANK26              50      0       0      58        0.0%
BITSFR57             0      0       0      58        0.0%
SFR57                0      0       0      58        0.0%
BITSFR58             0      0       0      59        0.0%
SFR58                0      0       0      59        0.0%
DATA                 0      0      44      59        0.0%
BITBANK27           50      0       0      60        0.0%
BITSFR59             0      0       0      60        0.0%
SFR59                0      0       0      60        0.0%
BANK27              50      0       0      61        0.0%
BITSFR60             0      0       0      61        0.0%
SFR60                0      0       0      61        0.0%
BITBANK28           50      0       0      62        0.0%
BITSFR61             0      0       0      62        0.0%
SFR61                0      0       0      62        0.0%
BANK28              50      0       0      63        0.0%
BITSFR62             0      0       0      63        0.0%
SFR62                0      0       0      63        0.0%
BITBANK29           50      0       0      64        0.0%
BITSFR63             0      0       0      64        0.0%
SFR63                0      0       0      64        0.0%
BANK29              50      0       0      65        0.0%
BITBANK30           50      0       0      66        0.0%
BANK30              50      0       0      67        0.0%
BITBANK31           50      0       0      68        0.0%
BANK31              50      0       0      69        0.0%
BITBANK32           50      0       0      70        0.0%
BANK32              50      0       0      71        0.0%
BITBANK33           50      0       0      72        0.0%
BANK33              50      0       0      73        0.0%
BITBANK34           50      0       0      74        0.0%
BANK34              50      0       0      75        0.0%
BITBANK35           50      0       0      76        0.0%
BANK35              50      0       0      77        0.0%
BITBANK36           50      0       0      78        0.0%
BANK36              50      0       0      79        0.0%
BITBANK37           50      0       0      80        0.0%
BANK37              50      0       0      81        0.0%
BITBANK38           50      0       0      82        0.0%
BANK38              50      0       0      83        0.0%
BITBANK39           50      0       0      84        0.0%
BANK39              50      0       0      85        0.0%
BITBANK40           50      0       0      86        0.0%
BANK40              50      0       0      87        0.0%
BITBANK41           50      0       0      88        0.0%
BANK41              50      0       0      89        0.0%
BITBANK42           50      0       0      90        0.0%
BANK42              50      0       0      91        0.0%
BITBANK43           50      0       0      92        0.0%
BANK43              50      0       0      93        0.0%
BITBANK44           50      0       0      94        0.0%
BANK44              50      0       0      95        0.0%
BITBANK45           50      0       0      96        0.0%
BANK45              50      0       0      97        0.0%
BITBANK46           50      0       0      98        0.0%
BANK46              50      0       0      99        0.0%
BITBANK47           50      0       0     100        0.0%
BANK47              50      0       0     101        0.0%
BITBANK48           50      0       0     102        0.0%
BANK48              50      0       0     103        0.0%
BITBANK49           50      0       0     104        0.0%
BANK49              50      0       0     105        0.0%
BITBANK50           50      0       0     106        0.0%
BANK50              50      0       0     107        0.0%


Microchip Technology PIC Macro Assembler V2.40 build 20220703182018 
Symbol Table                                                                                   Sun Oct 30 22:13:47 2022

                ___bmul@product 0072                              l91 05FA                              l92 05FB  
                            l89 05F8          Horz_Goto_XY@end_column 0077                             l101 060F  
                           l201 0631                             l106 0598                             l114 058C  
                           l122 05AE                             l109 059C                             l125 05B2  
                           l213 06BB                             l151 05CC                             l183 065E  
                           l432 05E1                             l186 05BE                             l196 068B  
                           l189 05A6                             u200 05C6                             u201 05C5  
                           u210 05CC                             u211 05CB                             u220 059C  
                           u300 06B8                             u221 059B                             u301 06B7  
                           u230 05B2                             u310 06C6                             u231 05B1  
                           u240 065B                             u320 0713                             u241 065A  
                           u321 0712                             u250 05D3                             u330 075B  
                           u251 05D2                             u331 075A                             u260 05E0  
                           u340 0793                             u245 0657                             u261 05DF  
                           u341 0792                             u325 070F                             u270 067D  
                           u350 07DB                             u271 067C                             u351 07DA  
                           u335 0757                             u407 0728                             u280 0688  
                           u281 0687                             u345 078F                             u417 0760  
                           u290 061C                             u355 07D7                             u427 0798  
                           u437 07A8                             u447 07E0                             u387 06E1  
                           u397 0718                             wreg 0009                            l1200 05CE  
                          l1210 05E0                            l1202 05CF                            l1220 0605  
                          l1204 05D3                            l1300 06CE                            l1222 0608  
                          l1214 05FE                            l1230 0660                            l1206 05D7  
                          l1310 06D8                            l1302 06CF                            l1224 060A  
                          l1216 0600                            l1232 0669                            l1208 05D9  
                          l1320 06F8                            l1312 06DC                            l1304 06D1  
                          l1170 05BF                            l1226 060D                            l1218 0601  
                          l1250 0677                            l1242 066F                            l1234 066C  
                          l1330 0706                            l1314 06E8                            l1306 06D2  
                          l1172 05C6                            l1180 058A                            l1260 0612  
                          l1228 059D                            l1252 067D                            l1236 066D  
                          l1340 073D                            l1332 0713                            l1316 06EC  
                          l1308 06D5                            l1174 0593                            l1182 05A8  
                          l1190 063D                            l1270 0628                            l1262 0620  
                          l1254 067E                            l1246 066F                            l1350 0749  
                          l1342 0740                            l1334 071F                            l1326 06FB  
                          l1318 06F5                            l1168 05BF                            l1176 0596  
                          l1184 05AB                            l1192 0640                            l1264 0622  
                          l1256 0682                            l1248 0673                            l1280 0695  
                          l1272 068D                            l1360 0775                            l1352 074E  
                          l1336 0723                            l1328 0701                            l1178 0587  
                          l1194 064A                            l1266 0624                            l1186 05B3  
                          l1258 0688                            l1290 06B2                            l1282 069C  
                          l1274 0692                            l1370 0781                            l1362 0778  
                          l1354 075B                            l1338 0733                            l1196 064E  
                          l1188 0632                            l1268 0626                            l1292 06B8  
                          l1284 06A0                            l1276 0692                            l1380 07B3  
                          l1372 0786                            l1356 0767                            l1348 0743  
                          l1198 065B                            l1286 06A3                            l1278 0692  
                          l1390 07C3                            l1382 07BD                            l1374 0793  
                          l1358 076B                            l1294 06BC                            l1288 06AE  
                          l1392 07C9                            l1384 07C0                            l1376 079F  
                          l1368 077B                            l1296 06CA                            l1394 07CE  
                          l1378 07A3                            l1298 06CD                            l1396 07DB  
                          l1398 07E7                            _LATA 0016                            _LATB 0017  
                          _LATC 0018                            _LATD 0019                            _LATE 001A  
                          _Font 0800                            _main 06BC                __end_of_I2C_Init 0610  
                          fsr0h 0005                            fsr1h 0007                            indf0 0000  
                          fsr0l 0004                            indf1 0001                            fsr1l 0006  
                          btemp 007E                            _wrap 0053                __end_of_I2C_Stop 058D  
                          start 0002               ___bmul@multiplier 0073               ??_SSD1306_Command 0074  
                         ?_main 0070                           _ANSC3 FA73                           _ANSC4 FA74  
                         _OSCEN 0891                           _PORTA 000C                           _PORTB 000D  
                         _PORTC 000E                           _PORTD 000F                           _TRISA 0011  
                         _TRISB 0012                           _TRISC 0013                           _TRISD 0014  
                         _TRISE 0015                           _x_pos 0055                           _y_pos 0054  
                         main@i 0036               __end_of_I2C_Start 059D               __end_of_I2C_Write 05B3  
                         status 0003                           wtemp0 007E                 __initialization 07EE  
                  __end_of_Font 09DB                    __end_of_main 07EE                          ??_main 007B  
                 ?_Horz_Goto_XY 0077                    put_char@font 0078          _horizontal_fill_screen 065F  
                        _ANSELA 1F38                          _ANSELB 1F43                          _ANSELC 1F4E  
                        _ANSELD 1F59                          _ANSELE 1F64                          _RC3PPS 1F23  
                        _RC4PPS 1F24                          _OSCFRQ 0893                   _entire_screen 09F2  
                 ?_SSD1306_Data 0070                   ?_SSD1306_Init 0070                          ___bmul 05CD  
                ??_Horz_Goto_XY 007A                       ?_I2C_Init 0070                       ?_I2C_Stop 0070  
              __end_of_put_char 06BC         __end_of__initialization 07FD                  ??_SSD1306_Data 0071  
                ??_SSD1306_Init 0077             ___bmul@multiplicand 0070         horizontal_fill_screen@i 007A  
       horizontal_fill_screen@j 0079              Horz_Goto_XY@F12209 004D                  __pcstackCOMMON 0070  
                  __pidataBANK0 05E2                      ??_I2C_Init 0070                      ??_I2C_Stop 0070  
                    __pbssBANK0 0054                   put_char@limit 0076                 _SSD1306_Command 0632  
                    __pmaintext 06BC                         ?___bmul 0070                  _I2C_Idle_Check 05BF  
     SSD1306_Command@size_array 0073                         _OSCCON1 088D                         _OSCCON3 088F  
                       _OSCTUNE 0892                         _SSP1ADD 018D                         _SSP1BUF 018C  
          __end_of_Horz_Goto_XY 0632                       _I2C_Start 0593                       _I2C_Write 05A7  
        __end_of_I2C_Idle_Check 05CD                       ?_put_char 0070                         __ptext1 068C  
                       __ptext2 05CD                         __ptext3 065F                         __ptext4 05B3  
                       __ptext5 059D                         __ptext6 05F8                         __ptext7 0610  
                       __ptext8 0632                         __ptext9 05A7            __end_of_SSD1306_Data 05BF  
       ?_horizontal_fill_screen 0070            __end_of_SSD1306_Init 05A7               __end_of_horz_init 09F2  
          end_of_initialization 07FD         __end_of_SSD1306_Command 065F                         init_ram 058D  
                       initloop 058E                      ?_I2C_Start 0070                      ?_I2C_Write 0070  
              SSD1306_Command@i 0075                      main@F12212 003E                 ?_I2C_Idle_Check 0070  
                    ??_put_char 0074  __end_of_horizontal_fill_screen 068C                      main@phrase 0027  
                __end_of___bmul 05E2            SSD1306_Command@array 0071             start_initialization 07EE  
              ?_SSD1306_Command 0071           Horz_Goto_XY@start_row 0078                     ??_I2C_Start 0070  
                   ??_I2C_Write 0070                        ??___bmul 0071                     __pdataBANK0 003E  
                  _Horz_Goto_XY 0610             Horz_Goto_XY@end_row 0079                     __pbssCOMMON 007D  
                     ___latbits 0004                   __pcstackBANK0 0020             Horz_Goto_XY@goto_xy 0020  
                  _SSD1306_Data 05B3                    _SSD1306_Init 059D                       __vccstate 007D  
      Horz_Goto_XY@start_column 0026                        _I2C_Init 05F8                        _I2C_Stop 0587  
                     _horz_init 09DB           __end_of_entire_screen 09F8                ??_I2C_Idle_Check 0070  
                      _PIR3bits 070F                        _SSP1CON2 0191                        _SSP1STAT 018F  
   horizontal_fill_screen@value 0078               I2C_Write@I2C_data 0070                        __ptext10 0587  
                      __ptext11 0593                        __ptext12 05BF                    _SSP1CON1bits 0190  
                  _SSP1CON2bits 0191                        _put_char 068C                        main@i_80 003C  
                      main@i_78 0038                        main@i_79 003A                    _SSP1STATbits 018F  
                     put_char@a 0077                       put_char@b 0079                       put_char@j 0075  
      ??_horizontal_fill_screen 0077                   __pstringtext1 0800                   __pstringtext2 09DB  
                 __pstringtext3 09F2                      _SSP1DATPPS 1EC6                      _SSP1CLKPPS 1EC5  
